(lp1
S'http://warehouse.primekinetics.org/depository/species/catalog/s00004158.xml'
p2
aS'http://warehouse.primekinetics.org/depository/species/catalog/s00004159.xml'
p3
aS'http://warehouse.primekinetics.org/depository/species/catalog/s00004154.xml'
p4
aS'http://warehouse.primekinetics.org/depository/species/catalog/s00004155.xml'
p5
aS'http://warehouse.primekinetics.org/depository/species/catalog/s00004156.xml'
p6
aS'http://warehouse.primekinetics.org/depository/species/catalog/s00008232.xml'
p7
aS'http://warehouse.primekinetics.org/depository/species/catalog/s00004152.xml'
p8
aS'http://warehouse.primekinetics.org/depository/species/catalog/s00000008.xml'
p9
aS'http://warehouse.primekinetics.org/depository/species/catalog/s00008737.xml'
p10
aS'http://warehouse.primekinetics.org/depository/species/catalog/s00001530.xml'
p11
aS'http://warehouse.primekinetics.org/depository/species/catalog/s00010968.xml'
p12
aS'http://warehouse.primekinetics.org/depository/species/catalog/s00000000.xml'
p13
aS'http://warehouse.primekinetics.org/depository/species/catalog/s00000001.xml'
p14
aS'http://warehouse.primekinetics.org/depository/species/catalog/s00010969.xml'
p15
aS'http://warehouse.primekinetics.org/depository/species/catalog/s00000254.xml'
p16
aS'http://warehouse.primekinetics.org/depository/species/catalog/s00004814.xml'
p17
aS'http://warehouse.primekinetics.org/depository/species/catalog/s00010958.xml'
p18
aS'http://warehouse.primekinetics.org/depository/species/catalog/s00007296.xml'
p19
aS'http://warehouse.primekinetics.org/depository/species/catalog/s00002987.xml'
p20
aS'http://warehouse.primekinetics.org/depository/species/catalog/s00006117.xml'
p21
aS'http://warehouse.primekinetics.org/depository/species/catalog/s00009055.xml'
p22
aS'http://warehouse.primekinetics.org/depository/species/catalog/s00002532.xml'
p23
aS'http://warehouse.primekinetics.org/depository/species/catalog/s00009051.xml'
p24
aS'http://warehouse.primekinetics.org/depository/species/catalog/s00005333.xml'
p25
aS'http://warehouse.primekinetics.org/depository/species/catalog/s00003028.xml'
p26
aS'http://warehouse.primekinetics.org/depository/species/catalog/s00005331.xml'
p27
aS'http://warehouse.primekinetics.org/depository/species/catalog/s00009114.xml'
p28
aS'http://warehouse.primekinetics.org/depository/species/catalog/s00010961.xml'
p29
aS'http://warehouse.primekinetics.org/depository/species/catalog/s00006877.xml'
p30
aS'http://warehouse.primekinetics.org/depository/species/catalog/s00006878.xml'
p31
aS'http://warehouse.primekinetics.org/depository/species/catalog/s00005708.xml'
p32
aS'http://warehouse.primekinetics.org/depository/species/catalog/s00004124.xml'
p33
aS'http://warehouse.primekinetics.org/depository/species/catalog/s00004499.xml'
p34
aS'http://warehouse.primekinetics.org/depository/species/catalog/s00003216.xml'
p35
aS'http://warehouse.primekinetics.org/depository/species/catalog/s00004553.xml'
p36
aS'http://warehouse.primekinetics.org/depository/species/catalog/s00003214.xml'
p37
aS'http://warehouse.primekinetics.org/depository/species/catalog/s00009610.xml'
p38
aS'http://warehouse.primekinetics.org/depository/species/catalog/s00003215.xml'
p39
aS'http://warehouse.primekinetics.org/depository/species/catalog/s00009615.xml'
p40
aS'http://warehouse.primekinetics.org/depository/species/catalog/s00009203.xml'
p41
aS'http://warehouse.primekinetics.org/depository/species/catalog/s00005382.xml'
p42
aS'http://warehouse.primekinetics.org/depository/species/catalog/s00003110.xml'
p43
aS'http://warehouse.primekinetics.org/depository/species/catalog/s00003113.xml'
p44
aS'http://warehouse.primekinetics.org/depository/species/catalog/s00003112.xml'
p45
aS'http://warehouse.primekinetics.org/depository/species/catalog/s00010982.xml'
p46
aS'http://warehouse.primekinetics.org/depository/species/catalog/s00010983.xml'
p47
aS'http://warehouse.primekinetics.org/depository/species/catalog/s00010980.xml'
p48
aS'http://warehouse.primekinetics.org/depository/species/catalog/s00010981.xml'
p49
aS'http://warehouse.primekinetics.org/depository/species/catalog/s00010986.xml'
p50
aS'http://warehouse.primekinetics.org/depository/species/catalog/s00010987.xml'
p51
aS'http://warehouse.primekinetics.org/depository/species/catalog/s00010984.xml'
p52
aS'http://warehouse.primekinetics.org/depository/species/catalog/s00010985.xml'
p53
aS'http://warehouse.primekinetics.org/depository/species/catalog/s00010988.xml'
p54
aS'http://warehouse.primekinetics.org/depository/species/catalog/s00010989.xml'
p55
aS'http://warehouse.primekinetics.org/depository/species/catalog/s00002723.xml'
p56
aS'http://warehouse.primekinetics.org/depository/species/catalog/s00005221.xml'
p57
aS'http://warehouse.primekinetics.org/depository/species/catalog/s00008931.xml'
p58
aS'http://warehouse.primekinetics.org/depository/species/catalog/s00002546.xml'
p59
aS'http://warehouse.primekinetics.org/depository/species/catalog/s00006593.xml'
p60
aS'http://warehouse.primekinetics.org/depository/species/catalog/s00006594.xml'
p61
aS'http://warehouse.primekinetics.org/depository/species/catalog/s00004819.xml'
p62
aS'http://warehouse.primekinetics.org/depository/species/catalog/s00009806.xml'
p63
aS'http://warehouse.primekinetics.org/depository/species/catalog/s00003354.xml'
p64
aS'http://warehouse.primekinetics.org/depository/species/catalog/s00002991.xml'
p65
aS'http://warehouse.primekinetics.org/depository/species/catalog/s00002722.xml'
p66
aS'http://warehouse.primekinetics.org/depository/species/catalog/s00007423.xml'
p67
aS'http://warehouse.primekinetics.org/depository/species/catalog/s00007424.xml'
p68
aS'http://warehouse.primekinetics.org/depository/species/catalog/s00002617.xml'
p69
aS'http://warehouse.primekinetics.org/depository/species/catalog/s00011026.xml'
p70
aS'http://warehouse.primekinetics.org/depository/species/catalog/s00003350.xml'
p71
aS'http://warehouse.primekinetics.org/depository/species/catalog/s00002941.xml'
p72
aS'http://warehouse.primekinetics.org/depository/species/catalog/s00002942.xml'
p73
aS'http://warehouse.primekinetics.org/depository/species/catalog/s00001746.xml'
p74
aS'http://warehouse.primekinetics.org/depository/species/catalog/s00001747.xml'
p75
aS'http://warehouse.primekinetics.org/depository/species/catalog/s00001745.xml'
p76
aS'http://warehouse.primekinetics.org/depository/species/catalog/s00001218.xml'
p77
aS'http://warehouse.primekinetics.org/depository/species/catalog/s00011004.xml'
p78
aS'http://warehouse.primekinetics.org/depository/species/catalog/s00009875.xml'
p79
aS'http://warehouse.primekinetics.org/depository/species/catalog/s00009876.xml'
p80
aS'http://warehouse.primekinetics.org/depository/species/catalog/s00009877.xml'
p81
aS'http://warehouse.primekinetics.org/depository/species/catalog/s00011000.xml'
p82
aS'http://warehouse.primekinetics.org/depository/species/catalog/s00011001.xml'
p83
aS'http://warehouse.primekinetics.org/depository/species/catalog/s00009872.xml'
p84
aS'http://warehouse.primekinetics.org/depository/species/catalog/s00010938.xml'
p85
aS'http://warehouse.primekinetics.org/depository/species/catalog/s00010937.xml'
p86
aS'http://warehouse.primekinetics.org/depository/species/catalog/s00010936.xml'
p87
aS'http://warehouse.primekinetics.org/depository/species/catalog/s00010935.xml'
p88
aS'http://warehouse.primekinetics.org/depository/species/catalog/s00010934.xml'
p89
aS'http://warehouse.primekinetics.org/depository/species/catalog/s00009878.xml'
p90
aS'http://warehouse.primekinetics.org/depository/species/catalog/s00011009.xml'
p91
aS'http://warehouse.primekinetics.org/depository/species/catalog/s00010931.xml'
p92
aS'http://warehouse.primekinetics.org/depository/species/catalog/s00010930.xml'
p93
aS'http://warehouse.primekinetics.org/depository/species/catalog/s00005445.xml'
p94
aS'http://warehouse.primekinetics.org/depository/species/catalog/s00005444.xml'
p95
aS'http://warehouse.primekinetics.org/depository/species/catalog/s00005447.xml'
p96
aS'http://warehouse.primekinetics.org/depository/species/catalog/s00005446.xml'
p97
aS'http://warehouse.primekinetics.org/depository/species/catalog/s00010278.xml'
p98
aS'http://warehouse.primekinetics.org/depository/species/catalog/s00009501.xml'
p99
aS'http://warehouse.primekinetics.org/depository/species/catalog/s00005443.xml'
p100
aS'http://warehouse.primekinetics.org/depository/species/catalog/s00005449.xml'
p101
aS'http://warehouse.primekinetics.org/depository/species/catalog/s00005448.xml'
p102
aS'http://warehouse.primekinetics.org/depository/species/catalog/s00004815.xml'
p103
aS'http://warehouse.primekinetics.org/depository/species/catalog/s00004700.xml'
p104
aS'http://warehouse.primekinetics.org/depository/species/catalog/s00002790.xml'
p105
aS'http://warehouse.primekinetics.org/depository/species/catalog/s00003838.xml'
p106
aS'http://warehouse.primekinetics.org/depository/species/catalog/s00010070.xml'
p107
aS'http://warehouse.primekinetics.org/depository/species/catalog/s00009293.xml'
p108
aS'http://warehouse.primekinetics.org/depository/species/catalog/s00004816.xml'
p109
aS'http://warehouse.primekinetics.org/depository/species/catalog/s00008883.xml'
p110
aS'http://warehouse.primekinetics.org/depository/species/catalog/s00004343.xml'
p111
aS'http://warehouse.primekinetics.org/depository/species/catalog/s00002911.xml'
p112
aS'http://warehouse.primekinetics.org/depository/species/catalog/s00008884.xml'
p113
aS'http://warehouse.primekinetics.org/depository/species/catalog/s00002160.xml'
p114
aS'http://warehouse.primekinetics.org/depository/species/catalog/s00000048.xml'
p115
aS'http://warehouse.primekinetics.org/depository/species/catalog/s00002164.xml'
p116
aS'http://warehouse.primekinetics.org/depository/species/catalog/s00011071.xml'
p117
aS'http://warehouse.primekinetics.org/depository/species/catalog/s00011070.xml'
p118
aS'http://warehouse.primekinetics.org/depository/species/catalog/s00011073.xml'
p119
aS'http://warehouse.primekinetics.org/depository/species/catalog/s00011072.xml'
p120
aS'http://warehouse.primekinetics.org/depository/species/catalog/s00011075.xml'
p121
aS'http://warehouse.primekinetics.org/depository/species/catalog/s00011074.xml'
p122
aS'http://warehouse.primekinetics.org/depository/species/catalog/s00009375.xml'
p123
aS'http://warehouse.primekinetics.org/depository/species/catalog/s00011076.xml'
p124
aS'http://warehouse.primekinetics.org/depository/species/catalog/s00011079.xml'
p125
aS'http://warehouse.primekinetics.org/depository/species/catalog/s00011078.xml'
p126
aS'http://warehouse.primekinetics.org/depository/species/catalog/s00002199.xml'
p127
aS'http://warehouse.primekinetics.org/depository/species/catalog/s00000294.xml'
p128
aS'http://warehouse.primekinetics.org/depository/species/catalog/s00002366.xml'
p129
aS'http://warehouse.primekinetics.org/depository/species/catalog/s00009575.xml'
p130
aS'http://warehouse.primekinetics.org/depository/species/catalog/s00009574.xml'
p131
aS'http://warehouse.primekinetics.org/depository/species/catalog/s00003142.xml'
p132
aS'http://warehouse.primekinetics.org/depository/species/catalog/s00006789.xml'
p133
aS'http://warehouse.primekinetics.org/depository/species/catalog/s00002506.xml'
p134
aS'http://warehouse.primekinetics.org/depository/species/catalog/s00003146.xml'
p135
aS'http://warehouse.primekinetics.org/depository/species/catalog/s00003147.xml'
p136
aS'http://warehouse.primekinetics.org/depository/species/catalog/s00005803.xml'
p137
aS'http://warehouse.primekinetics.org/depository/species/catalog/s00009259.xml'
p138
aS'http://warehouse.primekinetics.org/depository/species/catalog/s00009393.xml'
p139
aS'http://warehouse.primekinetics.org/depository/species/catalog/s00009394.xml'
p140
aS'http://warehouse.primekinetics.org/depository/species/catalog/s00004443.xml'
p141
aS'http://warehouse.primekinetics.org/depository/species/catalog/s00004695.xml'
p142
aS'http://warehouse.primekinetics.org/depository/species/catalog/s00004161.xml'
p143
aS'http://warehouse.primekinetics.org/depository/species/catalog/s00004160.xml'
p144
aS'http://warehouse.primekinetics.org/depository/species/catalog/s00011094.xml'
p145
aS'http://warehouse.primekinetics.org/depository/species/catalog/s00011162.xml'
p146
aS'http://warehouse.primekinetics.org/depository/species/catalog/s00011161.xml'
p147
aS'http://warehouse.primekinetics.org/depository/species/catalog/s00011160.xml'
p148
aS'http://warehouse.primekinetics.org/depository/species/catalog/s00011020.xml'
p149
aS'http://warehouse.primekinetics.org/depository/species/catalog/s00009714.xml'
p150
aS'http://warehouse.primekinetics.org/depository/species/catalog/s00008379.xml'
p151
aS'http://warehouse.primekinetics.org/depository/species/catalog/s00011085.xml'
p152
aS'http://warehouse.primekinetics.org/depository/species/catalog/s00009892.xml'
p153
aS'http://warehouse.primekinetics.org/depository/species/catalog/s00010898.xml'
p154
aS'http://warehouse.primekinetics.org/depository/species/catalog/s00009891.xml'
p155
aS'http://warehouse.primekinetics.org/depository/species/catalog/s00004251.xml'
p156
aS'http://warehouse.primekinetics.org/depository/species/catalog/s00010899.xml'
p157
aS'http://warehouse.primekinetics.org/depository/species/catalog/s00002267.xml'
p158
aS'http://warehouse.primekinetics.org/depository/species/catalog/s00002263.xml'
p159
aS'http://warehouse.primekinetics.org/depository/species/catalog/s00002505.xml'
p160
aS'http://warehouse.primekinetics.org/depository/species/catalog/s00002504.xml'
p161
aS'http://warehouse.primekinetics.org/depository/species/catalog/s00002507.xml'
p162
aS'http://warehouse.primekinetics.org/depository/species/catalog/s00009024.xml'
p163
aS'http://warehouse.primekinetics.org/depository/species/catalog/s00002268.xml'
p164
aS'http://warehouse.primekinetics.org/depository/species/catalog/s00002500.xml'
p165
aS'http://warehouse.primekinetics.org/depository/species/catalog/s00002503.xml'
p166
aS'http://warehouse.primekinetics.org/depository/species/catalog/s00005244.xml'
p167
aS'http://warehouse.primekinetics.org/depository/species/catalog/s00008958.xml'
p168
aS'http://warehouse.primekinetics.org/depository/species/catalog/s00003857.xml'
p169
aS'http://warehouse.primekinetics.org/depository/species/catalog/s00002466.xml'
p170
aS'http://warehouse.primekinetics.org/depository/species/catalog/s00002467.xml'
p171
aS'http://warehouse.primekinetics.org/depository/species/catalog/s00002188.xml'
p172
aS'http://warehouse.primekinetics.org/depository/species/catalog/s00002468.xml'
p173
aS'http://warehouse.primekinetics.org/depository/species/catalog/s00010897.xml'
p174
aS'http://warehouse.primekinetics.org/depository/species/catalog/s00010896.xml'
p175
aS'http://warehouse.primekinetics.org/depository/species/catalog/s00008957.xml'
p176
aS'http://warehouse.primekinetics.org/depository/species/catalog/s00010100.xml'
p177
aS'http://warehouse.primekinetics.org/depository/species/catalog/s00008953.xml'
p178
aS'http://warehouse.primekinetics.org/depository/species/catalog/s00011080.xml'
p179
aS'http://warehouse.primekinetics.org/depository/species/catalog/s00010105.xml'
p180
aS'http://warehouse.primekinetics.org/depository/species/catalog/s00004564.xml'
p181
aS'http://warehouse.primekinetics.org/depository/species/catalog/s00003384.xml'
p182
aS'http://warehouse.primekinetics.org/depository/species/catalog/s00009093.xml'
p183
aS'http://warehouse.primekinetics.org/depository/species/catalog/s00003380.xml'
p184
aS'http://warehouse.primekinetics.org/depository/species/catalog/s00003381.xml'
p185
aS'http://warehouse.primekinetics.org/depository/species/catalog/s00009094.xml'
p186
aS'http://warehouse.primekinetics.org/depository/species/catalog/s00003383.xml'
p187
aS'http://warehouse.primekinetics.org/depository/species/catalog/s00009152.xml'
p188
aS'http://warehouse.primekinetics.org/depository/species/catalog/s00009623.xml'
p189
aS'http://warehouse.primekinetics.org/depository/species/catalog/s00004283.xml'
p190
aS'http://warehouse.primekinetics.org/depository/species/catalog/s00003388.xml'
p191
aS'http://warehouse.primekinetics.org/depository/species/catalog/s00001858.xml'
p192
aS'http://warehouse.primekinetics.org/depository/species/catalog/s00010979.xml'
p193
aS'http://warehouse.primekinetics.org/depository/species/catalog/s00010978.xml'
p194
aS'http://warehouse.primekinetics.org/depository/species/catalog/s00003568.xml'
p195
aS'http://warehouse.primekinetics.org/depository/species/catalog/s00011056.xml'
p196
aS'http://warehouse.primekinetics.org/depository/species/catalog/s00010973.xml'
p197
aS'http://warehouse.primekinetics.org/depository/species/catalog/s00010972.xml'
p198
aS'http://warehouse.primekinetics.org/depository/species/catalog/s00010971.xml'
p199
aS'http://warehouse.primekinetics.org/depository/species/catalog/s00001828.xml'
p200
aS'http://warehouse.primekinetics.org/depository/species/catalog/s00010977.xml'
p201
aS'http://warehouse.primekinetics.org/depository/species/catalog/s00010976.xml'
p202
aS'http://warehouse.primekinetics.org/depository/species/catalog/s00010975.xml'
p203
aS'http://warehouse.primekinetics.org/depository/species/catalog/s00010974.xml'
p204
aS'http://warehouse.primekinetics.org/depository/species/catalog/s00002606.xml'
p205
aS'http://warehouse.primekinetics.org/depository/species/catalog/s00002607.xml'
p206
aS'http://warehouse.primekinetics.org/depository/species/catalog/s00003207.xml'
p207
aS'http://warehouse.primekinetics.org/depository/species/catalog/s00003949.xml'
p208
aS'http://warehouse.primekinetics.org/depository/species/catalog/s00003203.xml'
p209
aS'http://warehouse.primekinetics.org/depository/species/catalog/s00003861.xml'
p210
aS'http://warehouse.primekinetics.org/depository/species/catalog/s00003209.xml'
p211
aS'http://warehouse.primekinetics.org/depository/species/catalog/s00003367.xml'
p212
aS'http://warehouse.primekinetics.org/depository/species/catalog/s00002608.xml'
p213
aS'http://warehouse.primekinetics.org/depository/species/catalog/s00003860.xml'
p214
aS'http://warehouse.primekinetics.org/depository/species/catalog/s00002594.xml'
p215
aS'http://warehouse.primekinetics.org/depository/species/catalog/s00003863.xml'
p216
aS'http://warehouse.primekinetics.org/depository/species/catalog/s00002591.xml'
p217
aS'http://warehouse.primekinetics.org/depository/species/catalog/s00000825.xml'
p218
aS'http://warehouse.primekinetics.org/depository/species/catalog/s00004862.xml'
p219
aS'http://warehouse.primekinetics.org/depository/species/catalog/s00009820.xml'
p220
aS'http://warehouse.primekinetics.org/depository/species/catalog/s00011081.xml'
p221
aS'http://warehouse.primekinetics.org/depository/species/catalog/s00002521.xml'
p222
aS'http://warehouse.primekinetics.org/depository/species/catalog/s00010032.xml'
p223
aS'http://warehouse.primekinetics.org/depository/species/catalog/s00002915.xml'
p224
aS'http://warehouse.primekinetics.org/depository/species/catalog/s00002951.xml'
p225
aS'http://warehouse.primekinetics.org/depository/species/catalog/s00002691.xml'
p226
aS'http://warehouse.primekinetics.org/depository/species/catalog/s00005979.xml'
p227
aS'http://warehouse.primekinetics.org/depository/species/catalog/s00004308.xml'
p228
aS'http://warehouse.primekinetics.org/depository/species/catalog/s00010998.xml'
p229
aS'http://warehouse.primekinetics.org/depository/species/catalog/s00005978.xml'
p230
aS'http://warehouse.primekinetics.org/depository/species/catalog/s00004305.xml'
p231
aS'http://warehouse.primekinetics.org/depository/species/catalog/s00004304.xml'
p232
aS'http://warehouse.primekinetics.org/depository/species/catalog/s00004307.xml'
p233
aS'http://warehouse.primekinetics.org/depository/species/catalog/s00002520.xml'
p234
aS'http://warehouse.primekinetics.org/depository/species/catalog/s00011135.xml'
p235
aS'http://warehouse.primekinetics.org/depository/species/catalog/s00006784.xml'
p236
aS'http://warehouse.primekinetics.org/depository/species/catalog/s00004261.xml'
p237
aS'http://warehouse.primekinetics.org/depository/species/catalog/s00011039.xml'
p238
aS'http://warehouse.primekinetics.org/depository/species/catalog/s00011038.xml'
p239
aS'http://warehouse.primekinetics.org/depository/species/catalog/s00000646.xml'
p240
aS'http://warehouse.primekinetics.org/depository/species/catalog/s00010910.xml'
p241
aS'http://warehouse.primekinetics.org/depository/species/catalog/s00011035.xml'
p242
aS'http://warehouse.primekinetics.org/depository/species/catalog/s00003842.xml'
p243
aS'http://warehouse.primekinetics.org/depository/species/catalog/s00011037.xml'
p244
aS'http://warehouse.primekinetics.org/depository/species/catalog/s00011058.xml'
p245
aS'http://warehouse.primekinetics.org/depository/species/catalog/s00011031.xml'
p246
aS'http://warehouse.primekinetics.org/depository/species/catalog/s00003846.xml'
p247
aS'http://warehouse.primekinetics.org/depository/species/catalog/s00011033.xml'
p248
aS'http://warehouse.primekinetics.org/depository/species/catalog/s00009842.xml'
p249
aS'http://warehouse.primekinetics.org/depository/species/catalog/s00009920.xml'
p250
aS'http://warehouse.primekinetics.org/depository/species/catalog/s00010912.xml'
p251
aS'http://warehouse.primekinetics.org/depository/species/catalog/s00002320.xml'
p252
aS'http://warehouse.primekinetics.org/depository/species/catalog/s00002323.xml'
p253
aS'http://warehouse.primekinetics.org/depository/species/catalog/s00003385.xml'
p254
aS'http://warehouse.primekinetics.org/depository/species/catalog/s00009535.xml'
p255
aS'http://warehouse.primekinetics.org/depository/species/catalog/s00011022.xml'
p256
aS'http://warehouse.primekinetics.org/depository/species/catalog/s00011152.xml'
p257
aS'http://warehouse.primekinetics.org/depository/species/catalog/s00002328.xml'
p258
aS'http://warehouse.primekinetics.org/depository/species/catalog/s00011023.xml'
p259
aS'http://warehouse.primekinetics.org/depository/species/catalog/s00011087.xml'
p260
aS'http://warehouse.primekinetics.org/depository/species/catalog/s00003852.xml'
p261
aS'http://warehouse.primekinetics.org/depository/species/catalog/s00010243.xml'
p262
aS'http://warehouse.primekinetics.org/depository/species/catalog/s00011021.xml'
p263
aS'http://warehouse.primekinetics.org/depository/species/catalog/s00000606.xml'
p264
aS'http://warehouse.primekinetics.org/depository/species/catalog/s00010947.xml'
p265
aS'http://warehouse.primekinetics.org/depository/species/catalog/s00006745.xml'
p266
aS'http://warehouse.primekinetics.org/depository/species/catalog/s00009586.xml'
p267
aS'http://warehouse.primekinetics.org/depository/species/catalog/s00011131.xml'
p268
aS'http://warehouse.primekinetics.org/depository/species/catalog/s00009915.xml'
p269
aS'http://warehouse.primekinetics.org/depository/species/catalog/s00011123.xml'
p270
aS'http://warehouse.primekinetics.org/depository/species/catalog/s00001524.xml'
p271
aS'http://warehouse.primekinetics.org/depository/species/catalog/s00005287.xml'
p272
aS'http://warehouse.primekinetics.org/depository/species/catalog/s00011141.xml'
p273
aS'http://warehouse.primekinetics.org/depository/species/catalog/s00011140.xml'
p274
aS'http://warehouse.primekinetics.org/depository/species/catalog/s00011143.xml'
p275
aS'http://warehouse.primekinetics.org/depository/species/catalog/s00011142.xml'
p276
aS'http://warehouse.primekinetics.org/depository/species/catalog/s00011145.xml'
p277
aS'http://warehouse.primekinetics.org/depository/species/catalog/s00011144.xml'
p278
aS'http://warehouse.primekinetics.org/depository/species/catalog/s00011147.xml'
p279
aS'http://warehouse.primekinetics.org/depository/species/catalog/s00011146.xml'
p280
aS'http://warehouse.primekinetics.org/depository/species/catalog/s00011149.xml'
p281
aS'http://warehouse.primekinetics.org/depository/species/catalog/s00011148.xml'
p282
aS'http://warehouse.primekinetics.org/depository/species/catalog/s00009324.xml'
p283
aS'http://warehouse.primekinetics.org/depository/species/catalog/s00003258.xml'
p284
aS'http://warehouse.primekinetics.org/depository/species/catalog/s00009284.xml'
p285
aS'http://warehouse.primekinetics.org/depository/species/catalog/s00003259.xml'
p286
aS'http://warehouse.primekinetics.org/depository/species/catalog/s00009991.xml'
p287
aS'http://warehouse.primekinetics.org/depository/species/catalog/s00009990.xml'
p288
aS'http://warehouse.primekinetics.org/depository/species/catalog/s00002817.xml'
p289
aS'http://warehouse.primekinetics.org/depository/species/catalog/s00002816.xml'
p290
aS'http://warehouse.primekinetics.org/depository/species/catalog/s00010926.xml'
p291
aS'http://warehouse.primekinetics.org/depository/species/catalog/s00002811.xml'
p292
aS'http://warehouse.primekinetics.org/depository/species/catalog/s00009109.xml'
p293
aS'http://warehouse.primekinetics.org/depository/species/catalog/s00009263.xml'
p294
aS'http://warehouse.primekinetics.org/depository/species/catalog/s00002771.xml'
p295
aS'http://warehouse.primekinetics.org/depository/species/catalog/s00003748.xml'
p296
aS'http://warehouse.primekinetics.org/depository/species/catalog/s00005321.xml'
p297
aS'http://warehouse.primekinetics.org/depository/species/catalog/s00002819.xml'
p298
aS'http://warehouse.primekinetics.org/depository/species/catalog/s00002818.xml'
p299
aS'http://warehouse.primekinetics.org/depository/species/catalog/s00008917.xml'
p300
aS'http://warehouse.primekinetics.org/depository/species/catalog/s00008912.xml'
p301
aS'http://warehouse.primekinetics.org/depository/species/catalog/s00008913.xml'
p302
aS'http://warehouse.primekinetics.org/depository/species/catalog/s00009918.xml'
p303
aS'http://warehouse.primekinetics.org/depository/species/catalog/s00003251.xml'
p304
aS'http://warehouse.primekinetics.org/depository/species/catalog/s00004058.xml'
p305
aS'http://warehouse.primekinetics.org/depository/species/catalog/s00003374.xml'
p306
aS'http://warehouse.primekinetics.org/depository/species/catalog/s00009749.xml'
p307
aS'http://warehouse.primekinetics.org/depository/species/catalog/s00004057.xml'
p308
aS'http://warehouse.primekinetics.org/depository/species/catalog/s00003109.xml'
p309
aS'http://warehouse.primekinetics.org/depository/species/catalog/s00003104.xml'
p310
aS'http://warehouse.primekinetics.org/depository/species/catalog/s00003103.xml'
p311
aS'http://warehouse.primekinetics.org/depository/species/catalog/s00008932.xml'
p312
aS'http://warehouse.primekinetics.org/depository/species/catalog/s00002319.xml'
p313
aS'http://warehouse.primekinetics.org/depository/species/catalog/s00003567.xml'
p314
aS'http://warehouse.primekinetics.org/depository/species/catalog/s00002391.xml'
p315
aS'http://warehouse.primekinetics.org/depository/species/catalog/s00005457.xml'
p316
aS'http://warehouse.primekinetics.org/depository/species/catalog/s00002254.xml'
p317
aS'http://warehouse.primekinetics.org/depository/species/catalog/s00001857.xml'
p318
aS'http://warehouse.primekinetics.org/depository/species/catalog/s00010933.xml'
p319
aS'http://warehouse.primekinetics.org/depository/species/catalog/s00002885.xml'
p320
aS'http://warehouse.primekinetics.org/depository/species/catalog/s00002493.xml'
p321
aS'http://warehouse.primekinetics.org/depository/species/catalog/s00005219.xml'
p322
aS'http://warehouse.primekinetics.org/depository/species/catalog/s00003205.xml'
p323
aS'http://warehouse.primekinetics.org/depository/species/catalog/s00008962.xml'
p324
aS'http://warehouse.primekinetics.org/depository/species/catalog/s00004820.xml'
p325
aS'http://warehouse.primekinetics.org/depository/species/catalog/s00004823.xml'
p326
aS'http://warehouse.primekinetics.org/depository/species/catalog/s00003208.xml'
p327
aS'http://warehouse.primekinetics.org/depository/species/catalog/s00002212.xml'
p328
aS'http://warehouse.primekinetics.org/depository/species/catalog/s00010941.xml'
p329
aS'http://warehouse.primekinetics.org/depository/species/catalog/s00011059.xml'
p330
aS'http://warehouse.primekinetics.org/depository/species/catalog/s00001829.xml'
p331
aS'http://warehouse.primekinetics.org/depository/species/catalog/s00006685.xml'
p332
aS'http://warehouse.primekinetics.org/depository/species/catalog/s00002955.xml'
p333
aS'http://warehouse.primekinetics.org/depository/species/catalog/s00001823.xml'
p334
aS'http://warehouse.primekinetics.org/depository/species/catalog/s00011155.xml'
p335
aS'http://warehouse.primekinetics.org/depository/species/catalog/s00002950.xml'
p336
aS'http://warehouse.primekinetics.org/depository/species/catalog/s00009064.xml'
p337
aS'http://warehouse.primekinetics.org/depository/species/catalog/s00002383.xml'
p338
aS'http://warehouse.primekinetics.org/depository/species/catalog/s00011098.xml'
p339
aS'http://warehouse.primekinetics.org/depository/species/catalog/s00009830.xml'
p340
aS'http://warehouse.primekinetics.org/depository/species/catalog/s00000605.xml'
p341
aS'http://warehouse.primekinetics.org/depository/species/catalog/s00000354.xml'
p342
aS'http://warehouse.primekinetics.org/depository/species/catalog/s00000355.xml'
p343
aS'http://warehouse.primekinetics.org/depository/species/catalog/s00010920.xml'
p344
aS'http://warehouse.primekinetics.org/depository/species/catalog/s00010921.xml'
p345
aS'http://warehouse.primekinetics.org/depository/species/catalog/s00003557.xml'
p346
aS'http://warehouse.primekinetics.org/depository/species/catalog/s00010923.xml'
p347
aS'http://warehouse.primekinetics.org/depository/species/catalog/s00010924.xml'
p348
aS'http://warehouse.primekinetics.org/depository/species/catalog/s00010925.xml'
p349
aS'http://warehouse.primekinetics.org/depository/species/catalog/s00000211.xml'
p350
aS'http://warehouse.primekinetics.org/depository/species/catalog/s00010927.xml'
p351
aS'http://warehouse.primekinetics.org/depository/species/catalog/s00010928.xml'
p352
aS'http://warehouse.primekinetics.org/depository/species/catalog/s00010929.xml'
p353
aS'http://warehouse.primekinetics.org/depository/species/catalog/s00003926.xml'
p354
aS'http://warehouse.primekinetics.org/depository/species/catalog/s00003927.xml'
p355
aS'http://warehouse.primekinetics.org/depository/species/catalog/s00003920.xml'
p356
aS'http://warehouse.primekinetics.org/depository/species/catalog/s00002386.xml'
p357
aS'http://warehouse.primekinetics.org/depository/species/catalog/s00004918.xml'
p358
aS'http://warehouse.primekinetics.org/depository/species/catalog/s00004919.xml'
p359
aS'http://warehouse.primekinetics.org/depository/species/catalog/s00005450.xml'
p360
aS'http://warehouse.primekinetics.org/depository/species/catalog/s00005451.xml'
p361
aS'http://warehouse.primekinetics.org/depository/species/catalog/s00002384.xml'
p362
aS'http://warehouse.primekinetics.org/depository/species/catalog/s00005458.xml'
p363
aS'http://warehouse.primekinetics.org/depository/species/catalog/s00005459.xml'
p364
aS'http://warehouse.primekinetics.org/depository/species/catalog/s00004117.xml'
p365
aS'http://warehouse.primekinetics.org/depository/species/catalog/s00007239.xml'
p366
aS'http://warehouse.primekinetics.org/depository/species/catalog/s00008765.xml'
p367
aS'http://warehouse.primekinetics.org/depository/species/catalog/s00008764.xml'
p368
aS'http://warehouse.primekinetics.org/depository/species/catalog/s00003953.xml'
p369
aS'http://warehouse.primekinetics.org/depository/species/catalog/s00002609.xml'
p370
aS'http://warehouse.primekinetics.org/depository/species/catalog/s00011139.xml'
p371
aS'http://warehouse.primekinetics.org/depository/species/catalog/s00002389.xml'
p372
aS'http://warehouse.primekinetics.org/depository/species/catalog/s00002191.xml'
p373
aS'http://warehouse.primekinetics.org/depository/species/catalog/s00007237.xml'
p374
aS'http://warehouse.primekinetics.org/depository/species/catalog/s00011109.xml'
p375
aS'http://warehouse.primekinetics.org/depository/species/catalog/s00011108.xml'
p376
aS'http://warehouse.primekinetics.org/depository/species/catalog/s00011105.xml'
p377
aS'http://warehouse.primekinetics.org/depository/species/catalog/s00011104.xml'
p378
aS'http://warehouse.primekinetics.org/depository/species/catalog/s00011107.xml'
p379
aS'http://warehouse.primekinetics.org/depository/species/catalog/s00011106.xml'
p380
aS'http://warehouse.primekinetics.org/depository/species/catalog/s00011101.xml'
p381
aS'http://warehouse.primekinetics.org/depository/species/catalog/s00011100.xml'
p382
aS'http://warehouse.primekinetics.org/depository/species/catalog/s00011103.xml'
p383
aS'http://warehouse.primekinetics.org/depository/species/catalog/s00011102.xml'
p384
aS'http://warehouse.primekinetics.org/depository/species/catalog/s00011062.xml'
p385
aS'http://warehouse.primekinetics.org/depository/species/catalog/s00011063.xml'
p386
aS'http://warehouse.primekinetics.org/depository/species/catalog/s00011060.xml'
p387
aS'http://warehouse.primekinetics.org/depository/species/catalog/s00011061.xml'
p388
aS'http://warehouse.primekinetics.org/depository/species/catalog/s00011066.xml'
p389
aS'http://warehouse.primekinetics.org/depository/species/catalog/s00009817.xml'
p390
aS'http://warehouse.primekinetics.org/depository/species/catalog/s00011064.xml'
p391
aS'http://warehouse.primekinetics.org/depository/species/catalog/s00009815.xml'
p392
aS'http://warehouse.primekinetics.org/depository/species/catalog/s00002372.xml'
p393
aS'http://warehouse.primekinetics.org/depository/species/catalog/s00002373.xml'
p394
aS'http://warehouse.primekinetics.org/depository/species/catalog/s00011068.xml'
p395
aS'http://warehouse.primekinetics.org/depository/species/catalog/s00011069.xml'
p396
aS'http://warehouse.primekinetics.org/depository/species/catalog/s00002376.xml'
p397
aS'http://warehouse.primekinetics.org/depository/species/catalog/s00002377.xml'
p398
aS'http://warehouse.primekinetics.org/depository/species/catalog/s00002374.xml'
p399
aS'http://warehouse.primekinetics.org/depository/species/catalog/s00009562.xml'
p400
aS'http://warehouse.primekinetics.org/depository/species/catalog/s00002407.xml'
p401
aS'http://warehouse.primekinetics.org/depository/species/catalog/s00001676.xml'
p402
aS'http://warehouse.primekinetics.org/depository/species/catalog/s00003177.xml'
p403
aS'http://warehouse.primekinetics.org/depository/species/catalog/s00009227.xml'
p404
aS'http://warehouse.primekinetics.org/depository/species/catalog/s00003171.xml'
p405
aS'http://warehouse.primekinetics.org/depository/species/catalog/s00004681.xml'
p406
aS'http://warehouse.primekinetics.org/depository/species/catalog/s00006797.xml'
p407
aS'http://warehouse.primekinetics.org/depository/species/catalog/s00006790.xml'
p408
aS'http://warehouse.primekinetics.org/depository/species/catalog/s00001001.xml'
p409
aS'http://warehouse.primekinetics.org/depository/species/catalog/s00001002.xml'
p410
aS'http://warehouse.primekinetics.org/depository/species/catalog/s00002905.xml'
p411
aS'http://warehouse.primekinetics.org/depository/species/catalog/s00004074.xml'
p412
aS'http://warehouse.primekinetics.org/depository/species/catalog/s00011002.xml'
p413
aS'http://warehouse.primekinetics.org/depository/species/catalog/s00006090.xml'
p414
aS'http://warehouse.primekinetics.org/depository/species/catalog/s00001992.xml'
p415
aS'http://warehouse.primekinetics.org/depository/species/catalog/s00006316.xml'
p416
aS'http://warehouse.primekinetics.org/depository/species/catalog/s00008380.xml'
p417
aS'http://warehouse.primekinetics.org/depository/species/catalog/s00009705.xml'
p418
aS'http://warehouse.primekinetics.org/depository/species/catalog/s00002908.xml'
p419
aS'http://warehouse.primekinetics.org/depository/species/catalog/s00011092.xml'
p420
aS'http://warehouse.primekinetics.org/depository/species/catalog/s00011003.xml'
p421
aS'http://warehouse.primekinetics.org/depository/species/catalog/s00002926.xml'
p422
aS'http://warehouse.primekinetics.org/depository/species/catalog/s00002925.xml'
p423
aS'http://warehouse.primekinetics.org/depository/species/catalog/s00002924.xml'
p424
aS'http://warehouse.primekinetics.org/depository/species/catalog/s00009035.xml'
p425
aS'http://warehouse.primekinetics.org/depository/species/catalog/s00009036.xml'
p426
aS'http://warehouse.primekinetics.org/depository/species/catalog/s00002519.xml'
p427
aS'http://warehouse.primekinetics.org/depository/species/catalog/s00009135.xml'
p428
aS'http://warehouse.primekinetics.org/depository/species/catalog/s00011150.xml'
p429
aS'http://warehouse.primekinetics.org/depository/species/catalog/s00006077.xml'
p430
aS'http://warehouse.primekinetics.org/depository/species/catalog/s00011151.xml'
p431
aS'http://warehouse.primekinetics.org/depository/species/catalog/s00002453.xml'
p432
aS'http://warehouse.primekinetics.org/depository/species/catalog/s00003474.xml'
p433
aS'http://warehouse.primekinetics.org/depository/species/catalog/s00008924.xml'
p434
aS'http://warehouse.primekinetics.org/depository/species/catalog/s00002190.xml'
p435
aS'http://warehouse.primekinetics.org/depository/species/catalog/s00009292.xml'
p436
aS'http://warehouse.primekinetics.org/depository/species/catalog/s00001863.xml'
p437
aS'http://warehouse.primekinetics.org/depository/species/catalog/s00004264.xml'
p438
aS'http://warehouse.primekinetics.org/depository/species/catalog/s00002142.xml'
p439
aS'http://warehouse.primekinetics.org/depository/species/catalog/s00001866.xml'
p440
aS'http://warehouse.primekinetics.org/depository/species/catalog/s00010139.xml'
p441
aS'http://warehouse.primekinetics.org/depository/species/catalog/s00001864.xml'
p442
aS'http://warehouse.primekinetics.org/depository/species/catalog/s00011093.xml'
p443
aS'http://warehouse.primekinetics.org/depository/species/catalog/s00007572.xml'
p444
aS'http://warehouse.primekinetics.org/depository/species/catalog/s00007571.xml'
p445
aS'http://warehouse.primekinetics.org/depository/species/catalog/s00011067.xml'
p446
aS'http://warehouse.primekinetics.org/depository/species/catalog/s00009145.xml'
p447
aS'http://warehouse.primekinetics.org/depository/species/catalog/s00009146.xml'
p448
aS'http://warehouse.primekinetics.org/depository/species/catalog/s00011158.xml'
p449
aS'http://warehouse.primekinetics.org/depository/species/catalog/s00009142.xml'
p450
aS'http://warehouse.primekinetics.org/depository/species/catalog/s00002179.xml'
p451
aS'http://warehouse.primekinetics.org/depository/species/catalog/s00000253.xml'
p452
aS'http://warehouse.primekinetics.org/depository/species/catalog/s00011090.xml'
p453
aS'http://warehouse.primekinetics.org/depository/species/catalog/s00000525.xml'
p454
aS'http://warehouse.primekinetics.org/depository/species/catalog/s00000524.xml'
p455
aS'http://warehouse.primekinetics.org/depository/species/catalog/s00002522.xml'
p456
aS'http://warehouse.primekinetics.org/depository/species/catalog/s00010964.xml'
p457
aS'http://warehouse.primekinetics.org/depository/species/catalog/s00010965.xml'
p458
aS'http://warehouse.primekinetics.org/depository/species/catalog/s00010966.xml'
p459
aS'http://warehouse.primekinetics.org/depository/species/catalog/s00010967.xml'
p460
aS'http://warehouse.primekinetics.org/depository/species/catalog/s00002637.xml'
p461
aS'http://warehouse.primekinetics.org/depository/species/catalog/s00002636.xml'
p462
aS'http://warehouse.primekinetics.org/depository/species/catalog/s00010962.xml'
p463
aS'http://warehouse.primekinetics.org/depository/species/catalog/s00010963.xml'
p464
aS'http://warehouse.primekinetics.org/depository/species/catalog/s00005229.xml'
p465
aS'http://warehouse.primekinetics.org/depository/species/catalog/s00005228.xml'
p466
aS'http://warehouse.primekinetics.org/depository/species/catalog/s00002200.xml'
p467
aS'http://warehouse.primekinetics.org/depository/species/catalog/s00002201.xml'
p468
aS'http://warehouse.primekinetics.org/depository/species/catalog/s00003604.xml'
p469
aS'http://warehouse.primekinetics.org/depository/species/catalog/s00002204.xml'
p470
aS'http://warehouse.primekinetics.org/depository/species/catalog/s00005553.xml'
p471
aS'http://warehouse.primekinetics.org/depository/species/catalog/s00005552.xml'
p472
aS'http://warehouse.primekinetics.org/depository/species/catalog/s00005222.xml'
p473
aS'http://warehouse.primekinetics.org/depository/species/catalog/s00002176.xml'
p474
aS'http://warehouse.primekinetics.org/depository/species/catalog/s00005555.xml'
p475
aS'http://warehouse.primekinetics.org/depository/species/catalog/s00005554.xml'
p476
aS'http://warehouse.primekinetics.org/depository/species/catalog/s00005654.xml'
p477
aS'http://warehouse.primekinetics.org/depository/species/catalog/s00005655.xml'
p478
aS'http://warehouse.primekinetics.org/depository/species/catalog/s00005656.xml'
p479
aS'http://warehouse.primekinetics.org/depository/species/catalog/s00005657.xml'
p480
aS'http://warehouse.primekinetics.org/depository/species/catalog/s00010003.xml'
p481
aS'http://warehouse.primekinetics.org/depository/species/catalog/s00010002.xml'
p482
aS'http://warehouse.primekinetics.org/depository/species/catalog/s00010001.xml'
p483
aS'http://warehouse.primekinetics.org/depository/species/catalog/s00010000.xml'
p484
aS'http://warehouse.primekinetics.org/depository/species/catalog/s00010005.xml'
p485
aS'http://warehouse.primekinetics.org/depository/species/catalog/s00010004.xml'
p486
aS'http://warehouse.primekinetics.org/depository/species/catalog/s00011096.xml'
p487
aS'http://warehouse.primekinetics.org/depository/species/catalog/s00010909.xml'
p488
aS'http://warehouse.primekinetics.org/depository/species/catalog/s00002172.xml'
p489
aS'http://warehouse.primekinetics.org/depository/species/catalog/s00000414.xml'
p490
aS'http://warehouse.primekinetics.org/depository/species/catalog/s00002173.xml'
p491
aS'http://warehouse.primekinetics.org/depository/species/catalog/s00003281.xml'
p492
aS'http://warehouse.primekinetics.org/depository/species/catalog/s00003280.xml'
p493
aS'http://warehouse.primekinetics.org/depository/species/catalog/s00000413.xml'
p494
aS'http://warehouse.primekinetics.org/depository/species/catalog/s00006674.xml'
p495
aS'http://warehouse.primekinetics.org/depository/species/catalog/s00011122.xml'
p496
aS'http://warehouse.primekinetics.org/depository/species/catalog/s00009813.xml'
p497
aS'http://warehouse.primekinetics.org/depository/species/catalog/s00006394.xml'
p498
aS'http://warehouse.primekinetics.org/depository/species/catalog/s00001235.xml'
p499
aS'http://warehouse.primekinetics.org/depository/species/catalog/s00002378.xml'
p500
aS'http://warehouse.primekinetics.org/depository/species/catalog/s00007104.xml'
p501
aS'http://warehouse.primekinetics.org/depository/species/catalog/s00007105.xml'
p502
aS'http://warehouse.primekinetics.org/depository/species/catalog/s00010919.xml'
p503
aS'http://warehouse.primekinetics.org/depository/species/catalog/s00010918.xml'
p504
aS'http://warehouse.primekinetics.org/depository/species/catalog/s00011028.xml'
p505
aS'http://warehouse.primekinetics.org/depository/species/catalog/s00011029.xml'
p506
aS'http://warehouse.primekinetics.org/depository/species/catalog/s00010443.xml'
p507
aS'http://warehouse.primekinetics.org/depository/species/catalog/s00009816.xml'
p508
aS'http://warehouse.primekinetics.org/depository/species/catalog/s00011024.xml'
p509
aS'http://warehouse.primekinetics.org/depository/species/catalog/s00011025.xml'
p510
aS'http://warehouse.primekinetics.org/depository/species/catalog/s00003850.xml'
p511
aS'http://warehouse.primekinetics.org/depository/species/catalog/s00003851.xml'
p512
aS'http://warehouse.primekinetics.org/depository/species/catalog/s00010917.xml'
p513
aS'http://warehouse.primekinetics.org/depository/species/catalog/s00003853.xml'
p514
aS'http://warehouse.primekinetics.org/depository/species/catalog/s00011134.xml'
p515
aS'http://warehouse.primekinetics.org/depository/species/catalog/s00002334.xml'
p516
aS'http://warehouse.primekinetics.org/depository/species/catalog/s00009914.xml'
p517
aS'http://warehouse.primekinetics.org/depository/species/catalog/s00009913.xml'
p518
aS'http://warehouse.primekinetics.org/depository/species/catalog/s00002333.xml'
p519
aS'http://warehouse.primekinetics.org/depository/species/catalog/s00008425.xml'
p520
aS'http://warehouse.primekinetics.org/depository/species/catalog/s00011065.xml'
p521
aS'http://warehouse.primekinetics.org/depository/species/catalog/s00011136.xml'
p522
aS'http://warehouse.primekinetics.org/depository/species/catalog/s00009520.xml'
p523
aS'http://warehouse.primekinetics.org/depository/species/catalog/s00009521.xml'
p524
aS'http://warehouse.primekinetics.org/depository/species/catalog/s00010256.xml'
p525
aS'http://warehouse.primekinetics.org/depository/species/catalog/s00010257.xml'
p526
aS'http://warehouse.primekinetics.org/depository/species/catalog/s00011137.xml'
p527
aS'http://warehouse.primekinetics.org/depository/species/catalog/s00005790.xml'
p528
aS'http://warehouse.primekinetics.org/depository/species/catalog/s00010317.xml'
p529
aS'http://warehouse.primekinetics.org/depository/species/catalog/s00011130.xml'
p530
aS'http://warehouse.primekinetics.org/depository/species/catalog/s00002998.xml'
p531
aS'http://warehouse.primekinetics.org/depository/species/catalog/s00010232.xml'
p532
aS'http://warehouse.primekinetics.org/depository/species/catalog/s00010312.xml'
p533
aS'http://warehouse.primekinetics.org/depository/species/catalog/s00009848.xml'
p534
aS'http://warehouse.primekinetics.org/depository/species/catalog/s00009819.xml'
p535
aS'http://warehouse.primekinetics.org/depository/species/catalog/s00011132.xml'
p536
aS'http://warehouse.primekinetics.org/depository/species/catalog/s00006280.xml'
p537
aS'http://warehouse.primekinetics.org/depository/species/catalog/s00011133.xml'
p538
aS'http://warehouse.primekinetics.org/depository/species/catalog/s00002411.xml'
p539
aS'http://warehouse.primekinetics.org/depository/species/catalog/s00003843.xml'
p540
aS'http://warehouse.primekinetics.org/depository/species/catalog/s00011034.xml'
p541
aS'http://warehouse.primekinetics.org/depository/species/catalog/s00005323.xml'
p542
aS'http://warehouse.primekinetics.org/depository/species/catalog/s00002145.xml'
p543
aS'http://warehouse.primekinetics.org/depository/species/catalog/s00011153.xml'
p544
aS'http://warehouse.primekinetics.org/depository/species/catalog/s00011099.xml'
p545
aS'http://warehouse.primekinetics.org/depository/species/catalog/s00011036.xml'
p546
aS'http://warehouse.primekinetics.org/depository/species/catalog/s00011156.xml'
p547
aS'http://warehouse.primekinetics.org/depository/species/catalog/s00011157.xml'
p548
aS'http://warehouse.primekinetics.org/depository/species/catalog/s00011154.xml'
p549
aS'http://warehouse.primekinetics.org/depository/species/catalog/s00006353.xml'
p550
aS'http://warehouse.primekinetics.org/depository/species/catalog/s00009355.xml'
p551
aS'http://warehouse.primekinetics.org/depository/species/catalog/s00011138.xml'
p552
aS'http://warehouse.primekinetics.org/depository/species/catalog/s00011091.xml'
p553
aS'http://warehouse.primekinetics.org/depository/species/catalog/s00011159.xml'
p554
aS'http://warehouse.primekinetics.org/depository/species/catalog/s00002149.xml'
p555
aS'http://warehouse.primekinetics.org/depository/species/catalog/s00002148.xml'
p556
aS'http://warehouse.primekinetics.org/depository/species/catalog/s00011095.xml'
p557
aS'http://warehouse.primekinetics.org/depository/species/catalog/s00011030.xml'
p558
aS'http://warehouse.primekinetics.org/depository/species/catalog/s00009599.xml'
p559
aS'http://warehouse.primekinetics.org/depository/species/catalog/s00009598.xml'
p560
aS'http://warehouse.primekinetics.org/depository/species/catalog/s00009984.xml'
p561
aS'http://warehouse.primekinetics.org/depository/species/catalog/s00008515.xml'
p562
aS'http://warehouse.primekinetics.org/depository/species/catalog/s00008516.xml'
p563
aS'http://warehouse.primekinetics.org/depository/species/catalog/s00009988.xml'
p564
aS'http://warehouse.primekinetics.org/depository/species/catalog/s00011032.xml'
p565
aS'http://warehouse.primekinetics.org/depository/species/catalog/s00003007.xml'
p566
aS'http://warehouse.primekinetics.org/depository/species/catalog/s00002412.xml'
p567
aS'http://warehouse.primekinetics.org/depository/species/catalog/s00006525.xml'
p568
aS'http://warehouse.primekinetics.org/depository/species/catalog/s00002417.xml'
p569
aS'http://warehouse.primekinetics.org/depository/species/catalog/s00002416.xml'
p570
aS'http://warehouse.primekinetics.org/depository/species/catalog/s00005685.xml'
p571
aS'http://warehouse.primekinetics.org/depository/species/catalog/s00010902.xml'
p572
aS'http://warehouse.primekinetics.org/depository/species/catalog/s00009277.xml'
p573
aS'http://warehouse.primekinetics.org/depository/species/catalog/s00010960.xml'
p574
aS'http://warehouse.primekinetics.org/depository/species/catalog/s00003008.xml'
p575
aS'http://warehouse.primekinetics.org/depository/species/catalog/s00009921.xml'
p576
aS'http://warehouse.primekinetics.org/depository/species/catalog/s00001343.xml'
p577
aS'http://warehouse.primekinetics.org/depository/species/catalog/s00009275.xml'
p578
aS'http://warehouse.primekinetics.org/depository/species/catalog/s00006399.xml'
p579
aS'http://warehouse.primekinetics.org/depository/species/catalog/s00009874.xml'
p580
aS'http://warehouse.primekinetics.org/depository/species/catalog/s00011005.xml'
p581
aS'http://warehouse.primekinetics.org/depository/species/catalog/s00011006.xml'
p582
aS'http://warehouse.primekinetics.org/depository/species/catalog/s00003133.xml'
p583
aS'http://warehouse.primekinetics.org/depository/species/catalog/s00011007.xml'
p584
aS'http://warehouse.primekinetics.org/depository/species/catalog/s00006459.xml'
p585
aS'http://warehouse.primekinetics.org/depository/species/catalog/s00006458.xml'
p586
aS'http://warehouse.primekinetics.org/depository/species/catalog/s00009871.xml'
p587
aS'http://warehouse.primekinetics.org/depository/species/catalog/s00010939.xml'
p588
aS'http://warehouse.primekinetics.org/depository/species/catalog/s00002777.xml'
p589
aS'http://warehouse.primekinetics.org/depository/species/catalog/s00003311.xml'
p590
aS'http://warehouse.primekinetics.org/depository/species/catalog/s00009873.xml'
p591
aS'http://warehouse.primekinetics.org/depository/species/catalog/s00009005.xml'
p592
aS'http://warehouse.primekinetics.org/depository/species/catalog/s00009006.xml'
p593
aS'http://warehouse.primekinetics.org/depository/species/catalog/s00009975.xml'
p594
aS'http://warehouse.primekinetics.org/depository/species/catalog/s00009974.xml'
p595
aS'http://warehouse.primekinetics.org/depository/species/catalog/s00002485.xml'
p596
aS'http://warehouse.primekinetics.org/depository/species/catalog/s00005616.xml'
p597
aS'http://warehouse.primekinetics.org/depository/species/catalog/s00003480.xml'
p598
aS'http://warehouse.primekinetics.org/depository/species/catalog/s00003931.xml'
p599
aS'http://warehouse.primekinetics.org/depository/species/catalog/s00002482.xml'
p600
aS'http://warehouse.primekinetics.org/depository/species/catalog/s00003484.xml'
p601
aS'http://warehouse.primekinetics.org/depository/species/catalog/s00008604.xml'
p602
aS'http://warehouse.primekinetics.org/depository/species/catalog/s00008970.xml'
p603
aS'http://warehouse.primekinetics.org/depository/species/catalog/s00008971.xml'
p604
aS'http://warehouse.primekinetics.org/depository/species/catalog/s00008603.xml'
p605
aS'http://warehouse.primekinetics.org/depository/species/catalog/s00011008.xml'
p606
aS'http://warehouse.primekinetics.org/depository/species/catalog/s00000644.xml'
p607
aS'http://warehouse.primekinetics.org/depository/species/catalog/s00010932.xml'
p608
aS'http://warehouse.primekinetics.org/depository/species/catalog/s00001830.xml'
p609
aS'http://warehouse.primekinetics.org/depository/species/catalog/s00002809.xml'
p610
aS'http://warehouse.primekinetics.org/depository/species/catalog/s00002967.xml'
p611
aS'http://warehouse.primekinetics.org/depository/species/catalog/s00006795.xml'
p612
aS'http://warehouse.primekinetics.org/depository/species/catalog/s00009074.xml'
p613
aS'http://warehouse.primekinetics.org/depository/species/catalog/s00002801.xml'
p614
aS'http://warehouse.primekinetics.org/depository/species/catalog/s00002969.xml'
p615
aS'http://warehouse.primekinetics.org/depository/species/catalog/s00002968.xml'
p616
aS'http://warehouse.primekinetics.org/depository/species/catalog/s00002804.xml'
p617
aS'http://warehouse.primekinetics.org/depository/species/catalog/s00003227.xml'
p618
aS'http://warehouse.primekinetics.org/depository/species/catalog/s00000209.xml'
p619
aS'http://warehouse.primekinetics.org/depository/species/catalog/s00010906.xml'
p620
aS'http://warehouse.primekinetics.org/depository/species/catalog/s00009844.xml'
p621
aS'http://warehouse.primekinetics.org/depository/species/catalog/s00000645.xml'
p622
aS'http://warehouse.primekinetics.org/depository/species/catalog/s00010955.xml'
p623
aS'http://warehouse.primekinetics.org/depository/species/catalog/s00010954.xml'
p624
aS'http://warehouse.primekinetics.org/depository/species/catalog/s00009951.xml'
p625
aS'http://warehouse.primekinetics.org/depository/species/catalog/s00010956.xml'
p626
aS'http://warehouse.primekinetics.org/depository/species/catalog/s00010951.xml'
p627
aS'http://warehouse.primekinetics.org/depository/species/catalog/s00010950.xml'
p628
aS'http://warehouse.primekinetics.org/depository/species/catalog/s00010953.xml'
p629
aS'http://warehouse.primekinetics.org/depository/species/catalog/s00010952.xml'
p630
aS'http://warehouse.primekinetics.org/depository/species/catalog/s00003266.xml'
p631
aS'http://warehouse.primekinetics.org/depository/species/catalog/s00010959.xml'
p632
aS'http://warehouse.primekinetics.org/depository/species/catalog/s00003262.xml'
p633
aS'http://warehouse.primekinetics.org/depository/species/catalog/s00003261.xml'
p634
aS'http://warehouse.primekinetics.org/depository/species/catalog/s00003260.xml'
p635
aS'http://warehouse.primekinetics.org/depository/species/catalog/s00010292.xml'
p636
aS'http://warehouse.primekinetics.org/depository/species/catalog/s00010946.xml'
p637
aS'http://warehouse.primekinetics.org/depository/species/catalog/s00010297.xml'
p638
aS'http://warehouse.primekinetics.org/depository/species/catalog/s00008074.xml'
p639
aS'http://warehouse.primekinetics.org/depository/species/catalog/s00010350.xml'
p640
aS'http://warehouse.primekinetics.org/depository/species/catalog/s00010944.xml'
p641
aS'http://warehouse.primekinetics.org/depository/species/catalog/s00000909.xml'
p642
aS'http://warehouse.primekinetics.org/depository/species/catalog/s00010198.xml'
p643
aS'http://warehouse.primekinetics.org/depository/species/catalog/s00002999.xml'
p644
aS'http://warehouse.primekinetics.org/depository/species/catalog/s00002611.xml'
p645
aS'http://warehouse.primekinetics.org/depository/species/catalog/s00004848.xml'
p646
aS'http://warehouse.primekinetics.org/depository/species/catalog/s00000068.xml'
p647
aS'http://warehouse.primekinetics.org/depository/species/catalog/s00010940.xml'
p648
aS'http://warehouse.primekinetics.org/depository/species/catalog/s00000065.xml'
p649
aS'http://warehouse.primekinetics.org/depository/species/catalog/s00000066.xml'
p650
aS'http://warehouse.primekinetics.org/depository/species/catalog/s00000067.xml'
p651
aS'http://warehouse.primekinetics.org/depository/species/catalog/s00008094.xml'
p652
aS'http://warehouse.primekinetics.org/depository/species/catalog/s00003371.xml'
p653
aS'http://warehouse.primekinetics.org/depository/species/catalog/s00010992.xml'
p654
aS'http://warehouse.primekinetics.org/depository/species/catalog/s00002185.xml'
p655
aS'http://warehouse.primekinetics.org/depository/species/catalog/s00011118.xml'
p656
aS'http://warehouse.primekinetics.org/depository/species/catalog/s00011119.xml'
p657
aS'http://warehouse.primekinetics.org/depository/species/catalog/s00011116.xml'
p658
aS'http://warehouse.primekinetics.org/depository/species/catalog/s00011117.xml'
p659
aS'http://warehouse.primekinetics.org/depository/species/catalog/s00011114.xml'
p660
aS'http://warehouse.primekinetics.org/depository/species/catalog/s00011115.xml'
p661
aS'http://warehouse.primekinetics.org/depository/species/catalog/s00011112.xml'
p662
aS'http://warehouse.primekinetics.org/depository/species/catalog/s00011113.xml'
p663
aS'http://warehouse.primekinetics.org/depository/species/catalog/s00011110.xml'
p664
aS'http://warehouse.primekinetics.org/depository/species/catalog/s00011111.xml'
p665
aS'http://warehouse.primekinetics.org/depository/species/catalog/s00011057.xml'
p666
aS'http://warehouse.primekinetics.org/depository/species/catalog/s00003864.xml'
p667
aS'http://warehouse.primekinetics.org/depository/species/catalog/s00011055.xml'
p668
aS'http://warehouse.primekinetics.org/depository/species/catalog/s00011054.xml'
p669
aS'http://warehouse.primekinetics.org/depository/species/catalog/s00011053.xml'
p670
aS'http://warehouse.primekinetics.org/depository/species/catalog/s00011052.xml'
p671
aS'http://warehouse.primekinetics.org/depository/species/catalog/s00009821.xml'
p672
aS'http://warehouse.primekinetics.org/depository/species/catalog/s00011050.xml'
p673
aS'http://warehouse.primekinetics.org/depository/species/catalog/s00002345.xml'
p674
aS'http://warehouse.primekinetics.org/depository/species/catalog/s00009829.xml'
p675
aS'http://warehouse.primekinetics.org/depository/species/catalog/s00009828.xml'
p676
aS'http://warehouse.primekinetics.org/depository/species/catalog/s00003223.xml'
p677
aS'http://warehouse.primekinetics.org/depository/species/catalog/s00010994.xml'
p678
aS'http://warehouse.primekinetics.org/depository/species/catalog/s00010228.xml'
p679
aS'http://warehouse.primekinetics.org/depository/species/catalog/s00010949.xml'
p680
aS'http://warehouse.primekinetics.org/depository/species/catalog/s00009840.xml'
p681
aS'http://warehouse.primekinetics.org/depository/species/catalog/s00009559.xml'
p682
aS'http://warehouse.primekinetics.org/depository/species/catalog/s00010220.xml'
p683
aS'http://warehouse.primekinetics.org/depository/species/catalog/s00004142.xml'
p684
aS'http://warehouse.primekinetics.org/depository/species/catalog/s00004141.xml'
p685
aS'http://warehouse.primekinetics.org/depository/species/catalog/s00003226.xml'
p686
aS'http://warehouse.primekinetics.org/depository/species/catalog/s00011042.xml'
p687
aS'http://warehouse.primekinetics.org/depository/species/catalog/s00001545.xml'
p688
aS'http://warehouse.primekinetics.org/depository/species/catalog/s00000011.xml'
p689
aS'http://warehouse.primekinetics.org/depository/species/catalog/s00000010.xml'
p690
aS'http://warehouse.primekinetics.org/depository/species/catalog/s00000013.xml'
p691
aS'http://warehouse.primekinetics.org/depository/species/catalog/s00000012.xml'
p692
aS'http://warehouse.primekinetics.org/depository/species/catalog/s00010349.xml'
p693
aS'http://warehouse.primekinetics.org/depository/species/catalog/s00009850.xml'
p694
aS'http://warehouse.primekinetics.org/depository/species/catalog/s00011019.xml'
p695
aS'http://warehouse.primekinetics.org/depository/species/catalog/s00009300.xml'
p696
aS'http://warehouse.primekinetics.org/depository/species/catalog/s00011027.xml'
p697
aS'http://warehouse.primekinetics.org/depository/species/catalog/s00008251.xml'
p698
aS'http://warehouse.primekinetics.org/depository/species/catalog/s00002449.xml'
p699
aS'http://warehouse.primekinetics.org/depository/species/catalog/s00009047.xml'
p700
aS'http://warehouse.primekinetics.org/depository/species/catalog/s00009129.xml'
p701
aS'http://warehouse.primekinetics.org/depository/species/catalog/s00003346.xml'
p702
aS'http://warehouse.primekinetics.org/depository/species/catalog/s00002525.xml'
p703
aS'http://warehouse.primekinetics.org/depository/species/catalog/s00009042.xml'
p704
aS'http://warehouse.primekinetics.org/depository/species/catalog/s00009122.xml'
p705
aS'http://warehouse.primekinetics.org/depository/species/catalog/s00002528.xml'
p706
aS'http://warehouse.primekinetics.org/depository/species/catalog/s00009048.xml'
p707
aS'http://warehouse.primekinetics.org/depository/species/catalog/s00005710.xml'
p708
aS'http://warehouse.primekinetics.org/depository/species/catalog/s00009814.xml'
p709
aS'http://warehouse.primekinetics.org/depository/species/catalog/s00008935.xml'
p710
aS'http://warehouse.primekinetics.org/depository/species/catalog/s00010124.xml'
p711
aS'http://warehouse.primekinetics.org/depository/species/catalog/s00008933.xml'
p712
aS'http://warehouse.primekinetics.org/depository/species/catalog/s00003449.xml'
p713
aS'http://warehouse.primekinetics.org/depository/species/catalog/s00003448.xml'
p714
aS'http://warehouse.primekinetics.org/depository/species/catalog/s00002186.xml'
p715
aS'http://warehouse.primekinetics.org/depository/species/catalog/s00005227.xml'
p716
aS'http://warehouse.primekinetics.org/depository/species/catalog/s00002249.xml'
p717
aS'http://warehouse.primekinetics.org/depository/species/catalog/s00010027.xml'
p718
aS'http://warehouse.primekinetics.org/depository/species/catalog/s00003168.xml'
p719
aS'http://warehouse.primekinetics.org/depository/species/catalog/s00009608.xml'
p720
aS'http://warehouse.primekinetics.org/depository/species/catalog/s00006401.xml'
p721
aS'http://warehouse.primekinetics.org/depository/species/catalog/s00009604.xml'
p722
aS'http://warehouse.primekinetics.org/depository/species/catalog/s00003164.xml'
p723
aS'http://warehouse.primekinetics.org/depository/species/catalog/s00003167.xml'
p724
aS'http://warehouse.primekinetics.org/depository/species/catalog/s00010991.xml'
p725
aS'http://warehouse.primekinetics.org/depository/species/catalog/s00010990.xml'
p726
aS'http://warehouse.primekinetics.org/depository/species/catalog/s00010993.xml'
p727
aS'http://warehouse.primekinetics.org/depository/species/catalog/s00002245.xml'
p728
aS'http://warehouse.primekinetics.org/depository/species/catalog/s00010995.xml'
p729
aS'http://warehouse.primekinetics.org/depository/species/catalog/s00011051.xml'
p730
aS'http://warehouse.primekinetics.org/depository/species/catalog/s00010997.xml'
p731
aS'http://warehouse.primekinetics.org/depository/species/catalog/s00010996.xml'
p732
aS'http://warehouse.primekinetics.org/depository/species/catalog/s00010999.xml'
p733
aS'http://warehouse.primekinetics.org/depository/species/catalog/s00002625.xml'
p734
aS'http://warehouse.primekinetics.org/depository/species/catalog/s00002620.xml'
p735
aS'http://warehouse.primekinetics.org/depository/species/catalog/s00005788.xml'
p736
aS'http://warehouse.primekinetics.org/depository/species/catalog/s00002789.xml'
p737
aS'http://warehouse.primekinetics.org/depository/species/catalog/s00003224.xml'
p738
aS'http://warehouse.primekinetics.org/depository/species/catalog/s00003204.xml'
p739
aS'http://warehouse.primekinetics.org/depository/species/catalog/s00002234.xml'
p740
aS'http://warehouse.primekinetics.org/depository/species/catalog/s00002232.xml'
p741
aS'http://warehouse.primekinetics.org/depository/species/catalog/s00002231.xml'
p742
aS'http://warehouse.primekinetics.org/depository/species/catalog/s00003349.xml'
p743
aS'http://warehouse.primekinetics.org/depository/species/catalog/s00005230.xml'
p744
aS'http://warehouse.primekinetics.org/depository/species/catalog/s00005231.xml'
p745
aS'http://warehouse.primekinetics.org/depository/species/catalog/s00009286.xml'
p746
aS'http://warehouse.primekinetics.org/depository/species/catalog/s00004718.xml'
p747
aS'http://warehouse.primekinetics.org/depository/species/catalog/s00005789.xml'
p748
aS'http://warehouse.primekinetics.org/depository/species/catalog/s00002371.xml'
p749
aS'http://warehouse.primekinetics.org/depository/species/catalog/s00007748.xml'
p750
aS'http://warehouse.primekinetics.org/depository/species/catalog/s00004807.xml'
p751
aS'http://warehouse.primekinetics.org/depository/species/catalog/s00008980.xml'
p752
aS'http://warehouse.primekinetics.org/depository/species/catalog/s00010010.xml'
p753
aS'http://warehouse.primekinetics.org/depository/species/catalog/s00010348.xml'
p754
aS'http://warehouse.primekinetics.org/depository/species/catalog/s00006669.xml'
p755
aS'http://warehouse.primekinetics.org/depository/species/catalog/s00003298.xml'
p756
aS'http://warehouse.primekinetics.org/depository/species/catalog/s00002930.xml'
p757
aS'http://warehouse.primekinetics.org/depository/species/catalog/s00003297.xml'
p758
aS'http://warehouse.primekinetics.org/depository/species/catalog/s00002934.xml'
p759
aS'http://warehouse.primekinetics.org/depository/species/catalog/s00002936.xml'
p760
aS'http://warehouse.primekinetics.org/depository/species/catalog/s00002937.xml'
p761
aS'http://warehouse.primekinetics.org/depository/species/catalog/s00004323.xml'
p762
aS'http://warehouse.primekinetics.org/depository/species/catalog/s00004322.xml'
p763
aS'http://warehouse.primekinetics.org/depository/species/catalog/s00004321.xml'
p764
aS'http://warehouse.primekinetics.org/depository/species/catalog/s00004320.xml'
p765
aS'http://warehouse.primekinetics.org/depository/species/catalog/s00004327.xml'
p766
aS'http://warehouse.primekinetics.org/depository/species/catalog/s00004326.xml'
p767
aS'http://warehouse.primekinetics.org/depository/species/catalog/s00004325.xml'
p768
aS'http://warehouse.primekinetics.org/depository/species/catalog/s00004324.xml'
p769
aS'http://warehouse.primekinetics.org/depository/species/catalog/s00007137.xml'
p770
aS'http://warehouse.primekinetics.org/depository/species/catalog/s00004329.xml'
p771
aS'http://warehouse.primekinetics.org/depository/species/catalog/s00004328.xml'
p772
aS'http://warehouse.primekinetics.org/depository/species/catalog/s00004244.xml'
p773
aS'http://warehouse.primekinetics.org/depository/species/catalog/s00009818.xml'
p774
aS'http://warehouse.primekinetics.org/depository/species/catalog/s00004247.xml'
p775
aS'http://warehouse.primekinetics.org/depository/species/catalog/s00011013.xml'
p776
aS'http://warehouse.primekinetics.org/depository/species/catalog/s00011012.xml'
p777
aS'http://warehouse.primekinetics.org/depository/species/catalog/s00010908.xml'
p778
aS'http://warehouse.primekinetics.org/depository/species/catalog/s00011010.xml'
p779
aS'http://warehouse.primekinetics.org/depository/species/catalog/s00011017.xml'
p780
aS'http://warehouse.primekinetics.org/depository/species/catalog/s00011016.xml'
p781
aS'http://warehouse.primekinetics.org/depository/species/catalog/s00011015.xml'
p782
aS'http://warehouse.primekinetics.org/depository/species/catalog/s00011014.xml'
p783
aS'http://warehouse.primekinetics.org/depository/species/catalog/s00002718.xml'
p784
aS'http://warehouse.primekinetics.org/depository/species/catalog/s00010903.xml'
p785
aS'http://warehouse.primekinetics.org/depository/species/catalog/s00010900.xml'
p786
aS'http://warehouse.primekinetics.org/depository/species/catalog/s00010901.xml'
p787
aS'http://warehouse.primekinetics.org/depository/species/catalog/s00002307.xml'
p788
aS'http://warehouse.primekinetics.org/depository/species/catalog/s00010907.xml'
p789
aS'http://warehouse.primekinetics.org/depository/species/catalog/s00010904.xml'
p790
aS'http://warehouse.primekinetics.org/depository/species/catalog/s00010905.xml'
p791
aS'http://warehouse.primekinetics.org/depository/species/catalog/s00002487.xml'
p792
aS'http://warehouse.primekinetics.org/depository/species/catalog/s00008187.xml'
p793
aS'http://warehouse.primekinetics.org/depository/species/catalog/s00010261.xml'
p794
aS'http://warehouse.primekinetics.org/depository/species/catalog/s00002171.xml'
p795
aS'http://warehouse.primekinetics.org/depository/species/catalog/s00011089.xml'
p796
aS'http://warehouse.primekinetics.org/depository/species/catalog/s00010301.xml'
p797
aS'http://warehouse.primekinetics.org/depository/species/catalog/s00002483.xml'
p798
aS'http://warehouse.primekinetics.org/depository/species/catalog/s00004187.xml'
p799
aS'http://warehouse.primekinetics.org/depository/species/catalog/s00004181.xml'
p800
aS'http://warehouse.primekinetics.org/depository/species/catalog/s00004180.xml'
p801
aS'http://warehouse.primekinetics.org/depository/species/catalog/s00010044.xml'
p802
aS'http://warehouse.primekinetics.org/depository/species/catalog/s00004022.xml'
p803
aS'http://warehouse.primekinetics.org/depository/species/catalog/s00001051.xml'
p804
aS'http://warehouse.primekinetics.org/depository/species/catalog/s00008893.xml'
p805
aS'http://warehouse.primekinetics.org/depository/species/catalog/s00009838.xml'
p806
aS'http://warehouse.primekinetics.org/depository/species/catalog/s00002154.xml'
p807
aS'http://warehouse.primekinetics.org/depository/species/catalog/s00003839.xml'
p808
aS'http://warehouse.primekinetics.org/depository/species/catalog/s00011088.xml'
p809
aS'http://warehouse.primekinetics.org/depository/species/catalog/s00005982.xml'
p810
aS'http://warehouse.primekinetics.org/depository/species/catalog/s00002150.xml'
p811
aS'http://warehouse.primekinetics.org/depository/species/catalog/s00011049.xml'
p812
aS'http://warehouse.primekinetics.org/depository/species/catalog/s00011084.xml'
p813
aS'http://warehouse.primekinetics.org/depository/species/catalog/s00003292.xml'
p814
aS'http://warehouse.primekinetics.org/depository/species/catalog/s00011086.xml'
p815
aS'http://warehouse.primekinetics.org/depository/species/catalog/s00000298.xml'
p816
aS'http://warehouse.primekinetics.org/depository/species/catalog/s00009342.xml'
p817
aS'http://warehouse.primekinetics.org/depository/species/catalog/s00009343.xml'
p818
aS'http://warehouse.primekinetics.org/depository/species/catalog/s00011082.xml'
p819
aS'http://warehouse.primekinetics.org/depository/species/catalog/s00011083.xml'
p820
aS'http://warehouse.primekinetics.org/depository/species/catalog/s00011077.xml'
p821
aS'http://warehouse.primekinetics.org/depository/species/catalog/s00009466.xml'
p822
aS'http://warehouse.primekinetics.org/depository/species/catalog/s00000953.xml'
p823
aS'http://warehouse.primekinetics.org/depository/species/catalog/s00009462.xml'
p824
aS'http://warehouse.primekinetics.org/depository/species/catalog/s00002009.xml'
p825
aS'http://warehouse.primekinetics.org/depository/species/catalog/s00001610.xml'
p826
aS'http://warehouse.primekinetics.org/depository/species/catalog/s00002486.xml'
p827
aS'http://warehouse.primekinetics.org/depository/species/catalog/s00003291.xml'
p828
aS'http://warehouse.primekinetics.org/depository/species/catalog/s00003151.xml'
p829
aS'http://warehouse.primekinetics.org/depository/species/catalog/s00003150.xml'
p830
aS'http://warehouse.primekinetics.org/depository/species/catalog/s00003152.xml'
p831
aS'http://warehouse.primekinetics.org/depository/species/catalog/s00002400.xml'
p832
aS'http://warehouse.primekinetics.org/depository/species/catalog/s00011125.xml'
p833
aS'http://warehouse.primekinetics.org/depository/species/catalog/s00005971.xml'
p834
aS'http://warehouse.primekinetics.org/depository/species/catalog/s00005970.xml'
p835
aS'http://warehouse.primekinetics.org/depository/species/catalog/s00005973.xml'
p836
aS'http://warehouse.primekinetics.org/depository/species/catalog/s00005972.xml'
p837
aS'http://warehouse.primekinetics.org/depository/species/catalog/s00009354.xml'
p838
aS'http://warehouse.primekinetics.org/depository/species/catalog/s00000309.xml'
p839
aS'http://warehouse.primekinetics.org/depository/species/catalog/s00004115.xml'
p840
aS'http://warehouse.primekinetics.org/depository/species/catalog/s00009831.xml'
p841
aS'http://warehouse.primekinetics.org/depository/species/catalog/s00004118.xml'
p842
aS'http://warehouse.primekinetics.org/depository/species/catalog/s00011129.xml'
p843
aS'http://warehouse.primekinetics.org/depository/species/catalog/s00010970.xml'
p844
aS'http://warehouse.primekinetics.org/depository/species/catalog/s00005282.xml'
p845
aS'http://warehouse.primekinetics.org/depository/species/catalog/s00002808.xml'
p846
aS'http://warehouse.primekinetics.org/depository/species/catalog/s00011128.xml'
p847
aS'http://warehouse.primekinetics.org/depository/species/catalog/s00009106.xml'
p848
aS'http://warehouse.primekinetics.org/depository/species/catalog/s00008800.xml'
p849
aS'http://warehouse.primekinetics.org/depository/species/catalog/s00007529.xml'
p850
aS'http://warehouse.primekinetics.org/depository/species/catalog/s00003127.xml'
p851
aS'http://warehouse.primekinetics.org/depository/species/catalog/s00011046.xml'
p852
aS'http://warehouse.primekinetics.org/depository/species/catalog/s00003123.xml'
p853
aS'http://warehouse.primekinetics.org/depository/species/catalog/s00010911.xml'
p854
aS'http://warehouse.primekinetics.org/depository/species/catalog/s00010922.xml'
p855
aS'http://warehouse.primekinetics.org/depository/species/catalog/s00002726.xml'
p856
aS'http://warehouse.primekinetics.org/depository/species/catalog/s00002273.xml'
p857
aS'http://warehouse.primekinetics.org/depository/species/catalog/s00002271.xml'
p858
aS'http://warehouse.primekinetics.org/depository/species/catalog/s00003308.xml'
p859
aS'http://warehouse.primekinetics.org/depository/species/catalog/s00002906.xml'
p860
aS'http://warehouse.primekinetics.org/depository/species/catalog/s00001865.xml'
p861
aS'http://warehouse.primekinetics.org/depository/species/catalog/s00003821.xml'
p862
aS'http://warehouse.primekinetics.org/depository/species/catalog/s00002352.xml'
p863
aS'http://warehouse.primekinetics.org/depository/species/catalog/s00003302.xml'
p864
aS'http://warehouse.primekinetics.org/depository/species/catalog/s00004245.xml'
p865
aS'http://warehouse.primekinetics.org/depository/species/catalog/s00002471.xml'
p866
aS'http://warehouse.primekinetics.org/depository/species/catalog/s00002470.xml'
p867
aS'http://warehouse.primekinetics.org/depository/species/catalog/s00005322.xml'
p868
aS'http://warehouse.primekinetics.org/depository/species/catalog/s00002477.xml'
p869
aS'http://warehouse.primekinetics.org/depository/species/catalog/s00002476.xml'
p870
aS'http://warehouse.primekinetics.org/depository/species/catalog/s00002354.xml'
p871
aS'http://warehouse.primekinetics.org/depository/species/catalog/s00010881.xml'
p872
aS'http://warehouse.primekinetics.org/depository/species/catalog/s00010880.xml'
p873
aS'http://warehouse.primekinetics.org/depository/species/catalog/s00008952.xml'
p874
aS'http://warehouse.primekinetics.org/depository/species/catalog/s00010884.xml'
p875
aS'http://warehouse.primekinetics.org/depository/species/catalog/s00010111.xml'
p876
aS'http://warehouse.primekinetics.org/depository/species/catalog/s00010115.xml'
p877
aS'http://warehouse.primekinetics.org/depository/species/catalog/s00007796.xml'
p878
aS'http://warehouse.primekinetics.org/depository/species/catalog/s00008941.xml'
p879
aS'http://warehouse.primekinetics.org/depository/species/catalog/s00011011.xml'
p880
aS'http://warehouse.primekinetics.org/depository/species/catalog/s00003391.xml'
p881
aS'http://warehouse.primekinetics.org/depository/species/catalog/s00003390.xml'
p882
aS'http://warehouse.primekinetics.org/depository/species/catalog/s00010913.xml'
p883
aS'http://warehouse.primekinetics.org/depository/species/catalog/s00002971.xml'
p884
aS'http://warehouse.primekinetics.org/depository/species/catalog/s00002641.xml'
p885
aS'http://warehouse.primekinetics.org/depository/species/catalog/s00002873.xml'
p886
aS'http://warehouse.primekinetics.org/depository/species/catalog/s00002758.xml'
p887
aS'http://warehouse.primekinetics.org/depository/species/catalog/s00011097.xml'
p888
aS'http://warehouse.primekinetics.org/depository/species/catalog/s00003270.xml'
p889
aS'http://warehouse.primekinetics.org/depository/species/catalog/s00003271.xml'
p890
aS'http://warehouse.primekinetics.org/depository/species/catalog/s00003272.xml'
p891
aS'http://warehouse.primekinetics.org/depository/species/catalog/s00010945.xml'
p892
aS'http://warehouse.primekinetics.org/depository/species/catalog/s00010942.xml'
p893
aS'http://warehouse.primekinetics.org/depository/species/catalog/s00010943.xml'
p894
aS'http://warehouse.primekinetics.org/depository/species/catalog/s00000174.xml'
p895
aS'http://warehouse.primekinetics.org/depository/species/catalog/s00003277.xml'
p896
aS'http://warehouse.primekinetics.org/depository/species/catalog/s00003278.xml'
p897
aS'http://warehouse.primekinetics.org/depository/species/catalog/s00003279.xml'
p898
aS'http://warehouse.primekinetics.org/depository/species/catalog/s00010916.xml'
p899
aS'http://warehouse.primekinetics.org/depository/species/catalog/s00003372.xml'
p900
aS'http://warehouse.primekinetics.org/depository/species/catalog/s00009948.xml'
p901
aS'http://warehouse.primekinetics.org/depository/species/catalog/s00009949.xml'
p902
aS'http://warehouse.primekinetics.org/depository/species/catalog/s00010948.xml'
p903
aS'http://warehouse.primekinetics.org/depository/species/catalog/s00006395.xml'
p904
aS'http://warehouse.primekinetics.org/depository/species/catalog/s00002584.xml'
p905
aS'http://warehouse.primekinetics.org/depository/species/catalog/s00011018.xml'
p906
aS'http://warehouse.primekinetics.org/depository/species/catalog/s00002380.xml'
p907
aS'http://warehouse.primekinetics.org/depository/species/catalog/s00006396.xml'
p908
aS'http://warehouse.primekinetics.org/depository/species/catalog/s00005672.xml'
p909
aS'http://warehouse.primekinetics.org/depository/species/catalog/s00009904.xml'
p910
aS'http://warehouse.primekinetics.org/depository/species/catalog/s00006675.xml'
p911
aS'http://warehouse.primekinetics.org/depository/species/catalog/s00002588.xml'
p912
aS'http://warehouse.primekinetics.org/depository/species/catalog/s00005674.xml'
p913
aS'http://warehouse.primekinetics.org/depository/species/catalog/s00005675.xml'
p914
aS'http://warehouse.primekinetics.org/depository/species/catalog/s00010915.xml'
p915
aS'http://warehouse.primekinetics.org/depository/species/catalog/s00010024.xml'
p916
aS'http://warehouse.primekinetics.org/depository/species/catalog/s00004875.xml'
p917
aS'http://warehouse.primekinetics.org/depository/species/catalog/s00001181.xml'
p918
aS'http://warehouse.primekinetics.org/depository/species/catalog/s00006834.xml'
p919
aS'http://warehouse.primekinetics.org/depository/species/catalog/s00010180.xml'
p920
aS'http://warehouse.primekinetics.org/depository/species/catalog/s00004472.xml'
p921
aS'http://warehouse.primekinetics.org/depository/species/catalog/s00010914.xml'
p922
aS'http://warehouse.primekinetics.org/depository/species/catalog/s00006786.xml'
p923
aS'http://warehouse.primekinetics.org/depository/species/catalog/s00011048.xml'
p924
aS'http://warehouse.primekinetics.org/depository/species/catalog/s00009839.xml'
p925
aS'http://warehouse.primekinetics.org/depository/species/catalog/s00011121.xml'
p926
aS'http://warehouse.primekinetics.org/depository/species/catalog/s00011120.xml'
p927
aS'http://warehouse.primekinetics.org/depository/species/catalog/s00011127.xml'
p928
aS'http://warehouse.primekinetics.org/depository/species/catalog/s00011126.xml'
p929
aS'http://warehouse.primekinetics.org/depository/species/catalog/s00000307.xml'
p930
aS'http://warehouse.primekinetics.org/depository/species/catalog/s00011124.xml'
p931
aS'http://warehouse.primekinetics.org/depository/species/catalog/s00011040.xml'
p932
aS'http://warehouse.primekinetics.org/depository/species/catalog/s00011041.xml'
p933
aS'http://warehouse.primekinetics.org/depository/species/catalog/s00009832.xml'
p934
aS'http://warehouse.primekinetics.org/depository/species/catalog/s00011043.xml'
p935
aS'http://warehouse.primekinetics.org/depository/species/catalog/s00011044.xml'
p936
aS'http://warehouse.primekinetics.org/depository/species/catalog/s00011045.xml'
p937
aS'http://warehouse.primekinetics.org/depository/species/catalog/s00009836.xml'
p938
aS'http://warehouse.primekinetics.org/depository/species/catalog/s00011047.xml'
p939
aS'http://warehouse.primekinetics.org/depository/species/catalog/s00003877.xml'
p940
aS'http://warehouse.primekinetics.org/depository/species/catalog/s00009421.xml'
p941
aS'http://warehouse.primekinetics.org/depository/species/catalog/s00002353.xml'
p942
aS'http://warehouse.primekinetics.org/depository/species/catalog/s00009935.xml'
p943
aS'http://warehouse.primekinetics.org/depository/species/catalog/s00009952.xml'
p944
aS'http://warehouse.primekinetics.org/depository/species/catalog/s00005405.xml'
p945
aS'http://warehouse.primekinetics.org/depository/species/catalog/s00010957.xml'
p946
aS'http://warehouse.primekinetics.org/depository/species/catalog/s00003878.xml'
p947
aS'http://warehouse.primekinetics.org/depository/species/catalog/s00009178.xml'
p948
aS'http://warehouse.primekinetics.org/depository/species/catalog/s00010233.xml'
p949
aS'http://warehouse.primekinetics.org/depository/species/catalog/s00008736.xml'
p950
aS'http://warehouse.primekinetics.org/depository/species/catalog/s00010331.xml'
p951
aS'http://warehouse.primekinetics.org/depository/species/catalog/s00005220.xml'
p952
a.