(dp1
S's00010982'
p2
S'173'
p3
sS's00010983'
p4
S'174'
p5
sS's00010980'
p6
S'171'
p7
sS's00010981'
p8
S'172'
p9
sS's00010986'
p10
S'177'
p11
sS's00010987'
p12
S'178'
p13
sS's00010984'
p14
S'175'
p15
sS's00010985'
p16
S'176'
p17
sS's00010988'
p18
S'179'
p19
sS's00010989'
p20
S'18'
p21
sS's00011004'
p22
S'193'
p23
sS's00011005'
p24
S'194'
p25
sS's00011006'
p26
S'195'
p27
sS's00011007'
p28
S'196'
p29
sS's00011000'
p30
S'19'
p31
sS's00011001'
p32
S'190'
p33
sS's00011002'
p34
S'191'
p35
sS's00010938'
p36
S'133'
p37
sS's00010937'
p38
S'132'
p39
sS's00010936'
p40
S'131'
p41
sS's00010935'
p42
S'130'
p43
sS's00010934'
p44
S'13'
p45
sS's00010933'
p46
S'129'
p47
sS's00011009'
p48
S'198'
p49
sS's00010931'
p50
S'127'
p51
sS's00010930'
p52
S'126'
p53
sS's00011071'
p54
S'253'
p55
sS's00011070'
p56
S'252'
p57
sS's00011073'
p58
S'255'
p59
sS's00011072'
p60
S'254'
p61
sS's00011075'
p62
S'257'
p63
sS's00011074'
p64
S'256'
p65
sS's00011077'
p66
S'259'
p67
sS's00011076'
p68
S'258'
p69
sS's00011079'
p70
S'260'
p71
sS's00011078'
p72
S'26'
p73
sS's00011089'
p74
S'32'
p75
sS's00010979'
p76
S'170'
p77
sS's00010978'
p78
S'17'
p79
sS's00010973'
p80
S'165'
p81
sS's00010972'
p82
S'164'
p83
sS's00010971'
p84
S'163'
p85
sS's00010970'
p86
S'162'
p87
sS's00010977'
p88
S'169'
p89
sS's00010976'
p90
S'168'
p91
sS's00010975'
p92
S'167'
p93
sS's00010974'
p94
S'166'
p95
sS's00011134'
p96
S'73'
p97
sS's00011135'
p98
S'74'
p99
sS's00011136'
p100
S'75'
p101
sS's00011137'
p102
S'76'
p103
sS's00011039'
p104
S'224'
p105
sS's00011038'
p106
S'223'
p107
sS's00011132'
p108
S'71'
p109
sS's00011133'
p110
S'72'
p111
sS's00011035'
p112
S'220'
p113
sS's00011034'
p114
S'22'
p115
sS's00011037'
p116
S'222'
p117
sS's00011036'
p118
S'221'
p119
sS's00011031'
p120
S'217'
p121
sS's00011139'
p122
S'78'
p123
sS's00011033'
p124
S'219'
p125
sS's00011032'
p126
S'218'
p127
sS's00011025'
p128
S'211'
p129
sS's00010915'
p130
S'112'
p131
sS's00010914'
p132
S'111'
p133
sS's00010917'
p134
S'114'
p135
sS's00010916'
p136
S'113'
p137
sS's00011141'
p138
S'8'
sS's00011140'
p139
S'79'
p140
sS's00011143'
p141
S'81'
p142
sS's00011142'
p143
S'80'
p144
sS's00011145'
p145
S'83'
p146
sS's00011144'
p147
S'82'
p148
sS's00011147'
p149
S'85'
p150
sS's00011146'
p151
S'84'
p152
sS's00011149'
p153
S'87'
p154
sS's00011148'
p155
S'86'
p156
sS's00010920'
p157
S'117'
p158
sS's00010921'
p159
S'118'
p160
sS's00010922'
p161
S'119'
p162
sS's00010923'
p163
S'12'
p164
sS's00010924'
p165
S'120'
p166
sS's00010925'
p167
S'121'
p168
sS's00010926'
p169
S'122'
p170
sS's00010927'
p171
S'123'
p172
sS's00010928'
p173
S'124'
p174
sS's00010929'
p175
S'125'
p176
sS's00011138'
p177
S'77'
p178
sS's00011109'
p179
S'50'
p180
sS's00011108'
p181
S'5'
sS's00011105'
p182
S'47'
p183
sS's00011104'
p184
S'46'
p185
sS's00011107'
p186
S'49'
p187
sS's00011106'
p188
S'48'
p189
sS's00011101'
p190
S'43'
p191
sS's00011100'
p192
S'42'
p193
sS's00011103'
p194
S'45'
p195
sS's00011102'
p196
S'44'
p197
sS's00011062'
p198
S'245'
p199
sS's00011063'
p200
S'246'
p201
sS's00011060'
p202
S'243'
p203
sS's00011061'
p204
S'244'
p205
sS's00011066'
p206
S'249'
p207
sS's00011067'
p208
S'25'
p209
sS's00011064'
p210
S'247'
p211
sS's00011065'
p212
S'248'
p213
sS's00011068'
p214
S'250'
p215
sS's00011069'
p216
S'251'
p217
sS's00011030'
p218
S'216'
p219
sS's00011099'
p220
S'41'
p221
sS's00011151'
p222
S'89'
p223
sS's00011091'
p224
S'34'
p225
sS's00011159'
p226
S'96'
p227
sS's00010968'
p228
S'160'
p229
sS's00010969'
p230
S'161'
p231
sS's00010964'
p232
S'157'
p233
sS's00010965'
p234
S'158'
p235
sS's00010966'
p236
S'159'
p237
sS's00010967'
p238
S'16'
p239
sS's00010960'
p240
S'153'
p241
sS's00010961'
p242
S'154'
p243
sS's00010962'
p244
S'155'
p245
sS's00010963'
p246
S'156'
p247
sS's00010919'
p248
S'116'
p249
sS's00010918'
p250
S'115'
p251
sS's00011028'
p252
S'214'
p253
sS's00011029'
p254
S'215'
p255
sS's00011026'
p256
S'212'
p257
sS's00010910'
p258
S'108'
p259
sS's00011024'
p260
S'210'
p261
sS's00010912'
p262
S'11'
p263
sS's00011022'
p264
S'209'
p265
sS's00011023'
p266
S'21'
p267
sS's00011020'
p268
S'207'
p269
sS's00011021'
p270
S'208'
p271
sS's00011130'
p272
S'7'
sS's00011131'
p273
S'70'
p274
sS's00011152'
p275
S'9'
sS's00011153'
p276
S'90'
p277
sS's00011150'
p278
S'88'
p279
sS's00011098'
p280
S'40'
p281
sS's00011156'
p282
S'93'
p283
sS's00011157'
p284
S'94'
p285
sS's00011154'
p286
S'91'
p287
sS's00011155'
p288
S'92'
p289
sS's00011093'
p290
S'36'
p291
sS's00011092'
p292
S'35'
p293
sS's00011158'
p294
S'95'
p295
sS's00011090'
p296
S'33'
p297
sS's00011097'
p298
S'4'
sS's00011096'
p299
S'39'
p300
sS's00011095'
p301
S'38'
p302
sS's00011094'
p303
S'37'
p304
sS's00011049'
p305
S'233'
p306
sS's00010939'
p307
S'134'
p308
sS's00011003'
p309
S'192'
p310
sS's00011008'
p311
S'197'
p312
sS's00010932'
p313
S'128'
p314
sS's00010955'
p315
S'149'
p316
sS's00010954'
p317
S'148'
p318
sS's00010957'
p319
S'150'
p320
sS's00010956'
p321
S'15'
p322
sS's00010951'
p323
S'145'
p324
sS's00010950'
p325
S'144'
p326
sS's00010953'
p327
S'147'
p328
sS's00010952'
p329
S'146'
p330
sS's00010959'
p331
S'152'
p332
sS's00010958'
p333
S'151'
p334
sS's00011118'
p335
S'59'
p336
sS's00011119'
p337
S'6'
sS's00011116'
p338
S'57'
p339
sS's00011117'
p340
S'58'
p341
sS's00011114'
p342
S'55'
p343
sS's00011115'
p344
S'56'
p345
sS's00011112'
p346
S'53'
p347
sS's00011113'
p348
S'54'
p349
sS's00011110'
p350
S'51'
p351
sS's00011111'
p352
S'52'
p353
sS's00011057'
p354
S'240'
p355
sS's00011056'
p356
S'24'
p357
sS's00011055'
p358
S'239'
p359
sS's00011054'
p360
S'238'
p361
sS's00011053'
p362
S'237'
p363
sS's00011052'
p364
S'236'
p365
sS's00011051'
p366
S'235'
p367
sS's00011050'
p368
S'234'
p369
sS's00011059'
p370
S'242'
p371
sS's00011058'
p372
S'241'
p373
sS's00011027'
p374
S'213'
p375
sS's00010991'
p376
S'181'
p377
sS's00010990'
p378
S'180'
p379
sS's00010993'
p380
S'183'
p381
sS's00010992'
p382
S'182'
p383
sS's00010995'
p384
S'185'
p385
sS's00010994'
p386
S'184'
p387
sS's00010997'
p388
S'187'
p389
sS's00010996'
p390
S'186'
p391
sS's00010999'
p392
S'189'
p393
sS's00010998'
p394
S'188'
p395
sS's00011013'
p396
S'200'
p397
sS's00011012'
p398
S'20'
p399
sS's00010908'
p400
S'106'
p401
sS's00010909'
p402
S'107'
p403
sS's00011017'
p404
S'204'
p405
sS's00011016'
p406
S'203'
p407
sS's00011015'
p408
S'202'
p409
sS's00011014'
p410
S'201'
p411
sS's00010902'
p412
S'100'
p413
sS's00010903'
p414
S'101'
p415
sS's00011019'
p416
S'206'
p417
sS's00010901'
p418
S'10'
p419
sS's00010906'
p420
S'104'
p421
sS's00010907'
p422
S'105'
p423
sS's00010904'
p424
S'102'
p425
sS's00010905'
p426
S'103'
p427
sS's00011048'
p428
S'232'
p429
sS's00011088'
p430
S'31'
p431
sS's00011162'
p432
S'99'
p433
sS's00011161'
p434
S'98'
p435
sS's00011160'
p436
S'97'
p437
sS's00011084'
p438
S'28'
p439
sS's00011085'
p440
S'29'
p441
sS's00011086'
p442
S'3'
sS's00011087'
p443
S'30'
p444
sS's00011080'
p445
S'261'
p446
sS's00011081'
p447
S'262'
p448
sS's00011082'
p449
S'263'
p450
sS's00011083'
p451
S'27'
p452
sS's00011129'
p453
S'69'
p454
sS's00011043'
p455
S'228'
p456
sS's00010911'
p457
S'109'
p458
sS's00011011'
p459
S'2'
sS's00011010'
p460
S'199'
p461
sS's00010913'
p462
S'110'
p463
sS's00010946'
p464
S'140'
p465
sS's00010947'
p466
S'141'
p467
sS's00010944'
p468
S'139'
p469
sS's00010945'
p470
S'14'
p471
sS's00010942'
p472
S'137'
p473
sS's00010943'
p474
S'138'
p475
sS's00010940'
p476
S'135'
p477
sS's00010941'
p478
S'136'
p479
sS's00010900'
p480
S'1'
sS's00010948'
p481
S'142'
p482
sS's00010949'
p483
S'143'
p484
sS's00011018'
p485
S'205'
p486
sS's00011123'
p487
S'63'
p488
sS's00011122'
p489
S'62'
p490
sS's00011121'
p491
S'61'
p492
sS's00011120'
p493
S'60'
p494
sS's00011127'
p495
S'67'
p496
sS's00011126'
p497
S'66'
p498
sS's00011125'
p499
S'65'
p500
sS's00011124'
p501
S'64'
p502
sS's00011040'
p503
S'225'
p504
sS's00011041'
p505
S'226'
p506
sS's00011042'
p507
S'227'
p508
sS's00011128'
p509
S'68'
p510
sS's00011044'
p511
S'229'
p512
sS's00011045'
p513
S'23'
p514
sS's00011046'
p515
S'230'
p516
sS's00011047'
p517
S'231'
p518
s.