(dp1
S's00006772'
p2
S'281-33-4'
p3
sS's00006773'
p4
S'608-93-5'
p5
sS's00006770'
p6
S'105643-81-0'
p7
sS's00006776'
p8
S'308-24-7'
p9
sS's00006777'
p10
S'363-72-4'
p11
sS's00006774'
p12
S'1520-59-8'
p13
sS's00006775'
p14
S'13657-09-5'
p15
sS's00006778'
p16
S'771-61-9'
p17
sS's00006779'
p18
S'777-97-9'
p19
sS's00009110'
p20
S'7651-91-4'
p21
sS's00000212'
p22
S'13682-02-5'
p23
sS's00000168'
p24
S'13777-25-8'
p25
sS's00003265'
p26
S'7747-84-4'
p27
sS's00004438'
p28
S'22037-73-6'
p29
sS's00009665'
p30
S'7783-42-8'
p31
sS's00003912'
p32
S'356-18-3'
p33
sS's00006378'
p34
S'694-80-4'
p35
sS's00009664'
p36
S'13709-32-5'
p37
sS's00006376'
p38
S'106-39-8'
p39
sS's00006377'
p40
S'108-37-2'
p41
sS's00006374'
p42
S'108-36-1'
p43
sS's00009294'
p44
S'1664-99-9'
p45
sS's00006372'
p46
S'13799-57-0'
p47
sS's00009195'
p48
S'117068-12-9'
p49
sS's00006370'
p50
S'2973-43-5'
p51
sS's00006371'
p52
S'2973-44-6'
p53
sS's00009666'
p54
S'13873-52-4'
p55
sS's00000966'
p56
S'69642-59-7'
p57
sS's00003458'
p58
S'96706-05-7'
p59
sS's00006979'
p60
S'1595-34-2'
p61
sS's00003450'
p62
S'107-05-1'
p63
sS's00003451'
p64
S'557-98-2'
p65
sS's00003452'
p66
S'590-21-6'
p67
sS's00003453'
p68
S'16136-84-8'
p69
sS's00003454'
p70
S'16136-85-9'
p71
sS's00003455'
p72
S'7393-45-5'
p73
sS's00006118'
p74
S'111-25-1'
p75
sS's00006119'
p76
S'594-52-5'
p77
sS's00010847'
p78
S'12163-95-0'
p79
sS's00010846'
p80
S'13759-10-9'
p81
sS's00010845'
p82
S'13759-10-9'
p83
sS's00010844'
p84
S'30937-38-3'
p85
sS's00010843'
p86
S'12137-74-5'
p87
sS's00010842'
p88
S'1309-60-0'
p89
sS's00010841'
p90
S'13779-98-1'
p91
sS's00010840'
p92
S'41547-50-6'
p93
sS's00010849'
p94
S'13765-46-3'
p95
sS's00010848'
p96
S'12033-89-5'
p97
sS's00007519'
p98
S'651-89-8'
p99
sS's00007518'
p100
S'17252-77-6'
p101
sS's00007515'
p102
S'25837-05-2'
p103
sS's00007514'
p104
S'10210-68-1'
p105
sS's00007517'
p106
S'56004-61-6'
p107
sS's00007516'
p108
S'41051-88-1'
p109
sS's00007513'
p110
S'602-94-8'
p111
sS's00007512'
p112
S'653-37-2'
p113
sS's00006576'
p114
S'88-15-3'
p115
sS's00006577'
p116
S'1468-83-3'
p117
sS's00006578'
p118
S'108-98-5'
p119
sS's00006579'
p120
S'1918-82-7'
p121
sS's00005249'
p122
S'694-52-0'
p123
sS's00000507'
p124
S'3019-19-0'
p125
sS's00000506'
p126
S'4170-71-2'
p127
sS's00000505'
p128
S'3153-26-2'
p129
sS's00000504'
p130
S'14024-63-6'
p131
sS's00000503'
p132
S'69804-99-5'
p133
sS's00000502'
p134
S'92688-81-8'
p135
sS's00007221'
p136
S'394-47-8'
p137
sS's00000500'
p138
S'4170-72-3'
p139
sS's00003234'
p140
S'86880-31-1'
p141
sS's00010597'
p142
S'108402-57-9'
p143
sS's00010596'
p144
S'129793-02-8'
p145
sS's00003230'
p146
S'690-39-1'
p147
sS's00003231'
p148
S'920-66-1'
p149
sS's00000509'
p150
S'14905-81-8'
p151
sS's00000508'
p152
S'14905-80-7'
p153
sS's00006592'
p154
S'83774-09-8'
p155
sS's00006590'
p156
S'1282-31-1'
p157
sS's00006591'
p158
S'17321-20-9'
p159
sS's00010613'
p160
S'731798-94-0'
p161
sS's00008998'
p162
S'1495-48-3'
p163
sS's00008999'
p164
S'1495-50-7'
p165
sS's00008994'
p166
S'16282-67-0'
p167
sS's00008995'
p168
S'335-01-3'
p169
sS's00008996'
p170
S'373-80-8'
p171
sS's00008997'
p172
S'22632-21-9'
p173
sS's00008990'
p174
S'21811-29-0'
p175
sS's00008991'
p176
S'17167-98-5'
p177
sS's00008992'
p178
S'75-73-0'
p179
sS's00008993'
p180
S'373-91-1'
p181
sS's00007353'
p182
S'766-51-8'
p183
sS's00007352'
p184
S'623-12-1'
p185
sS's00007351'
p186
S'539-43-5'
p187
sS's00007422'
p188
S'149-74-6'
p189
sS's00007425'
p190
S'328-57-4'
p191
sS's00007356'
p192
S'1861-00-3'
p193
sS's00007355'
p194
S'873-76-7'
p195
sS's00007426'
p196
S'74278-01-6'
p197
sS's00001812'
p198
S'14024-18-1'
p199
sS's00004846'
p200
S'14220-21-4'
p201
sS's00007359'
p202
S'352-32-9'
p203
sS's00007358'
p204
S'95-52-3'
p205
sS's00004847'
p206
S'647-71-2'
p207
sS's00004334'
p208
S'78087-13-5'
p209
sS's00004335'
p210
S'138709-60-1'
p211
sS's00004336'
p212
S'138709-61-2'
p213
sS's00002256'
p214
S'87458-21-7'
p215
sS's00004330'
p216
S'65087-61-8'
p217
sS's00004995'
p218
S'872-93-5'
p219
sS's00004996'
p220
S'2094-92-0'
p221
sS's00004997'
p222
S'5862-47-5'
p223
sS's00007641'
p224
S'1549-45-7'
p225
sS's00007640'
p226
S'18246-09-8'
p227
sS's00004402'
p228
S'77-79-2'
p229
sS's00007642'
p230
S'36375-71-0'
p231
sS's00004338'
p232
S'373-94-4'
p233
sS's00004339'
p234
S'381-66-8'
p235
sS's00002399'
p236
S'381-73-7'
p237
sS's00000189'
p238
S'10031-18-2'
p239
sS's00000188'
p240
S'22655-59-0'
p241
sS's00009979'
p242
S'6569-51-3'
p243
sS's00009978'
p244
S'19287-45-7'
p245
sS's00000183'
p246
S'15605-95-5'
p247
sS's00000182'
p248
S'13863-59-7'
p249
sS's00000181'
p250
S'7787-70-4'
p251
sS's00009976'
p252
S'13598-78-2'
p253
sS's00009971'
p254
S'52227-38-0'
p255
sS's00009970'
p256
S'2406-52-2'
p257
sS's00009973'
p258
S'14537-73-6'
p259
sS's00009972'
p260
S'14565-98-1'
p261
sS's00008194'
p262
S'1073-67-2'
p263
sS's00008195'
p264
S'1331-28-8'
p265
sS's00008196'
p266
S'2039-85-2'
p267
sS's00004849'
p268
S'1759-63-3'
p269
sS's00008190'
p270
S'619-42-1'
p271
sS's00008191'
p272
S'7115-89-1'
p273
sS's00008192'
p274
S'1878-91-7'
p275
sS's00008193'
p276
S'622-25-3'
p277
sS's00006379'
p278
S'26516-62-1'
p279
sS's00008198'
p280
S'36525-03-8'
p281
sS's00008199'
p282
S'99-02-5'
p283
sS's00008753'
p284
S'12082-03-0'
p285
sS's00008751'
p286
S'1586-73-8'
p287
sS's00008754'
p288
S'705-28-2'
p289
sS's00008755'
p290
S'12082-08-5'
p291
sS's00009485'
p292
S'14986-21-1'
p293
sS's00009484'
p294
S'940-71-6'
p295
sS's00009487'
p296
S'13283-01-7'
p297
sS's00009486'
p298
S'13465-77-5'
p299
sS's00009481'
p300
S'7721-01-9'
p301
sS's00009480'
p302
S'82867-85-4'
p303
sS's00009483'
p304
S'15654-66-7'
p305
sS's00009482'
p306
S'13470-14-9'
p307
sS's00004420'
p308
S'59507-56-1'
p309
sS's00004421'
p310
S'74378-81-7'
p311
sS's00001102'
p312
S'22300-89-6'
p313
sS's00001103'
p314
S'587-85-9'
p315
sS's00009489'
p316
S'14973-59-2'
p317
sS's00009488'
p318
S'13596-23-1'
p319
sS's00006373'
p320
S'106-37-6'
p321
sS's00002888'
p322
S'676-59-5'
p323
sS's00000769'
p324
S'14586-49-3'
p325
sS's00000768'
p326
S'1010-60-2'
p327
sS's00000767'
p328
S'117-80-6'
p329
sS's00006429'
p330
S'273-92-7'
p331
sS's00009801'
p332
S'18283-93-7'
p333
sS's00009371'
p334
S'506-80-9'
p335
sS's00009802'
p336
S'2377-80-2'
p337
sS's00009805'
p338
S'12008-19-4'
p339
sS's00009804'
p340
S'18433-84-6'
p341
sS's00000299'
p342
S'1796-63-0'
p343
sS's00009374'
p344
S'7440-70-2'
p345
sS's00000297'
p346
S'1796-72-1'
p347
sS's00009808'
p348
S'17702-41-9'
p349
sS's00009379'
p350
S'15923-87-2'
p351
sS's00001169'
p352
S'10075-77-1'
p353
sS's00000293'
p354
S'59163-72-3'
p355
sS's00000292'
p356
S'55116-57-9'
p357
sS's00000291'
p358
S'33709-41-0'
p359
sS's00000290'
p360
S'22913-11-7'
p361
sS's00009571'
p362
S'12018-61-0'
p363
sS's00004446'
p364
S'563-52-0'
p365
sS's00009573'
p366
S'7440-50-8'
p367
sS's00009572'
p368
S'12331-83-8'
p369
sS's00001580'
p370
S'1517-22-2'
p371
sS's00001581'
p372
S'1580-19-4'
p373
sS's00001582'
p374
S'1580-20-7'
p375
sS's00001167'
p376
S'10075-73-7'
p377
sS's00009579'
p378
S'7681-65-4'
p379
sS's00009578'
p380
S'7789-19-7'
p381
sS's00009399'
p382
S'14977-61-8'
p383
sS's00009398'
p384
S'10049-05-5'
p385
sS's00004445'
p386
S'563-47-3'
p387
sS's00001368'
p388
S'2283-11-6'
p389
sS's00005800'
p390
S'93037-56-0'
p391
sS's00005802'
p392
S'26650-62-4'
p393
sS's00001364'
p394
S'2176-98-9'
p395
sS's00001365'
p396
S'2949-42-0'
p397
sS's00001366'
p398
S'993-62-4'
p399
sS's00001367'
p400
S'2622-07-3'
p401
sS's00009395'
p402
S'22537-15-1'
p403
sS's00001361'
p404
S'998-40-3'
p405
sS's00009397'
p406
S'7646-79-9'
p407
sS's00009396'
p408
S'7782-50-5'
p409
sS's00004440'
p410
S'2623-87-2'
p411
sS's00010618'
p412
S'63125-12-2'
p413
sS's00010619'
p414
S'591755-79-2'
p415
sS's00004042'
p416
S'692-42-2'
p417
sS's00004043'
p418
S'4262-43-5'
p419
sS's00004040'
p420
S'627-54-3'
p421
sS's00001161'
p422
S'69135-33-7'
p423
sS's00004046'
p424
S'2344-80-1'
p425
sS's00004047'
p426
S'25087-37-0'
p427
sS's00004044'
p428
S'5518-25-2'
p429
sS's00004045'
p430
S'5926-26-1'
p431
sS's00010144'
p432
S'14447-89-3'
p433
sS's00009715'
p434
S'10049-14-6'
p435
sS's00003105'
p436
S'422-77-5'
p437
sS's00009717'
p438
S'13709-61-0'
p439
sS's00009716'
p440
S'13766-47-7'
p441
sS's00008378'
p442
S'71777-61-2'
p443
sS's00009710'
p444
S'7783-60-0'
p445
sS's00009713'
p446
S'7783-61-1'
p447
sS's00009712'
p448
S'41831-80-5'
p449
sS's00004190'
p450
S'382-31-0'
p451
sS's00008375'
p452
S'18469-37-9'
p453
sS's00008376'
p454
S'402-32-4'
p455
sS's00008377'
p456
S'14062-80-7'
p457
sS's00009719'
p458
S'13819-84-6'
p459
sS's00009718'
p460
S'7783-66-6'
p461
sS's00002264'
p462
S'4605-17-8'
p463
sS's00002265'
p464
S'359-37-5'
p465
sS's00002266'
p466
S'353-85-5'
p467
sS's00005248'
p468
S'372-48-5'
p469
sS's00002916'
p470
S'124-72-1'
p471
sS's00002917'
p472
S'354-07-4'
p473
sS's00002914'
p474
S'359-08-0'
p475
sS's00009028'
p476
S'78818-97-0'
p477
sS's00009027'
p478
S'75-09-2'
p479
sS's00009026'
p480
S'6806-86-6'
p481
sS's00002918'
p482
S'78957-22-9'
p483
sS's00002919'
p484
S'593-63-5'
p485
sS's00009023'
p486
S'312962-31-5'
p487
sS's00002269'
p488
S'6185-26-8'
p489
sS's00009021'
p490
S'557-68-6'
p491
sS's00009020'
p492
S'74-97-5'
p493
sS's00002462'
p494
S'87676-41-3'
p495
sS's00002463'
p496
S'430-53-5'
p497
sS's00002460'
p498
S'19468-97-4'
p499
sS's00009298'
p500
S'2670-13-5'
p501
sS's00002464'
p502
S'430-57-9'
p503
sS's00002465'
p504
S'25167-88-8'
p505
sS's00002469'
p506
S'131919-07-8'
p507
sS's00008890'
p508
S'71598-48-6'
p509
sS's00010142'
p510
S'10377-58-9'
p511
sS's00010106'
p512
S'61508-72-3'
p513
sS's00008075'
p514
S'25116-77-2'
p515
sS's00010104'
p516
S'14097-15-5'
p517
sS's00003026'
p518
S'12071-15-7'
p519
sS's00009629'
p520
S'7440-52-0'
p521
sS's00009628'
p522
S'12175-28-9'
p523
sS's00007210'
p524
S'1603-99-2'
p525
sS's00002868'
p526
S'593-57-7'
p527
sS's00002869'
p528
S'20693-69-0'
p529
sS's00002866'
p530
S'544-97-8'
p531
sS's00002867'
p532
S'865-37-2'
p533
sS's00002864'
p534
S'20334-43-4'
p535
sS's00002865'
p536
S'129944-33-8'
p537
sS's00009625'
p538
S'14530-76-8'
p539
sS's00002863'
p540
S'593-80-6'
p541
sS's00009627'
p542
S'16087-68-6'
p543
sS's00009626'
p544
S'7429-91-6'
p545
sS's00010410'
p546
S'12210-79-6'
p547
sS's00009826'
p548
S'17194-00-2'
p549
sS's00009825'
p550
S'169127-14-4'
p551
sS's00000994'
p552
S'77919-66-5'
p553
sS's00002956'
p554
S'28760-99-8'
p555
sS's00002604'
p556
S'624-70-4'
p557
sS's00002605'
p558
S'53422-48-3'
p559
sS's00002602'
p560
S'1615-75-4'
p561
sS's00003456'
p562
S'598-77-6'
p563
sS's00002600'
p564
S'6233-20-1'
p565
sS's00009062'
p566
S'75-11-6'
p567
sS's00009823'
p568
S'37805-57-5'
p569
sS's00003457'
p570
S'7789-89-1'
p571
sS's00000998'
p572
S'34786-26-0'
p573
sS's00002954'
p574
S'811-96-1'
p575
sS's00009822'
p576
S'14452-64-3'
p577
sS's00002596'
p578
S'107-06-2'
p579
sS's00002597'
p580
S'598-38-9'
p581
sS's00002595'
p582
S'75-34-3'
p583
sS's00002592'
p584
S'16519-99-6'
p585
sS's00010416'
p586
S'12185-17-0'
p587
sS's00002590'
p588
S'625114-37-6'
p589
sS's00003187'
p590
S'1631-73-8'
p591
sS's00010417'
p592
S'1315-06-6'
p593
sS's00002598'
p594
S'4885-02-3'
p595
sS's00002599'
p596
S'134984-60-4'
p597
sS's00010036'
p598
S'13931-97-0'
p599
sS's00010037'
p600
S'14994-20-8'
p601
sS's00010034'
p602
S'177778-92-6'
p603
sS's00010035'
p604
S'15880-17-8'
p605
sS's00010033'
p606
S'7790-93-4'
p607
sS's00010030'
p608
S'7790-92-3'
p609
sS's00010031'
p610
S'71572-35-5'
p611
sS's00008796'
p612
S'20488-11-3'
p613
sS's00006094'
p614
S'99051-59-9'
p615
sS's00010553'
p616
S'87-68-3'
p617
sS's00010038'
p618
S'13772-47-9'
p619
sS's00010039'
p620
S'21351-79-1'
p621
sS's00003941'
p622
S'685-63-2'
p623
sS's00003180'
p624
S'1449-63-4'
p625
sS's00003946'
p626
S'17977-49-0'
p627
sS's00003951'
p628
S'360-91-8'
p629
sS's00003947'
p630
S'685-24-5'
p631
sS's00002048'
p632
S'54039-38-2'
p633
sS's00003944'
p634
S'684-22-0'
p635
sS's00002732'
p636
S'16056-37-4'
p637
sS's00002733'
p638
S'52922-59-5'
p639
sS's00002730'
p640
S'758-18-9'
p641
sS's00003945'
p642
S'699-35-4'
p643
sS's00002736'
p644
S'13057-19-7'
p645
sS's00002737'
p646
S'55661-06-8'
p647
sS's00002734'
p648
S'75-03-6'
p649
sS's00002735'
p650
S'624-76-0'
p651
sS's00001768'
p652
S'19771-12-1'
p653
sS's00002288'
p654
S'372-63-4'
p655
sS's00002289'
p656
S'2154-71-4'
p657
sS's00006356'
p658
S'1489-53-8'
p659
sS's00002282'
p660
S'354-72-3'
p661
sS's00002283'
p662
S'93625-14-0'
p663
sS's00002280'
p664
S'3369-48-0'
p665
sS's00002281'
p666
S'354-64-3'
p667
sS's00002286'
p668
S'359-64-8'
p669
sS's00002287'
p670
S'1479-46-5'
p671
sS's00002284'
p672
S'147703-39-7'
p673
sS's00002285'
p674
S'76-16-4'
p675
sS's00010329'
p676
S'12534-33-7'
p677
sS's00003188'
p678
S'1004-35-9'
p679
sS's00003747'
p680
S'31452-21-8'
p681
sS's00010322'
p682
S'1344-54-3'
p683
sS's00010323'
p684
S'1344-58-7'
p685
sS's00006270'
p686
S'1115-99-7'
p687
sS's00010321'
p688
S'12534-28-0'
p689
sS's00010326'
p690
S'20816-12-0'
p691
sS's00010327'
p692
S'20427-56-9'
p693
sS's00010324'
p694
S'1314-35-8'
p695
sS's00010325'
p696
S'12259-68-6'
p697
sS's00006747'
p698
S'1860-21-5'
p699
sS's00006746'
p700
S'24253-56-3'
p701
sS's00006744'
p702
S'77376-08-0'
p703
sS's00006743'
p704
S'2441-97-6'
p705
sS's00006742'
p706
S'930-66-5'
p707
sS's00006741'
p708
S'77379-00-1'
p709
sS's00007215'
p710
S'88-16-4'
p711
sS's00006749'
p712
S'56663-75-3'
p713
sS's00006748'
p714
S'10080-39-4'
p715
sS's00006343'
p716
S'775-40-6'
p717
sS's00006342'
p718
S'2367-82-0'
p719
sS's00006341'
p720
S'551-62-2'
p721
sS's00006340'
p722
S'327-54-8'
p723
sS's00006346'
p724
S'18853-40-2'
p725
sS's00006345'
p726
S'18853-32-2'
p727
sS's00003442'
p728
S'4333-56-6'
p729
sS's00006349'
p730
S'87-61-6'
p731
sS's00006348'
p732
S'21250-21-5'
p733
sS's00001767'
p734
S'19771-11-0'
p735
sS's00003125'
p736
S'84752-88-5'
p737
sS's00010858'
p738
S'1303-86-2'
p739
sS's00010859'
p740
S'7726-95-6'
p741
sS's00003429'
p742
S'27846-30-6'
p743
sS's00003428'
p744
S'10152-75-7'
p745
sS's00010850'
p746
S'24203-25-6'
p747
sS's00010851'
p748
S'7733-02-0'
p749
sS's00003427'
p750
S'2080-58-2'
p751
sS's00010853'
p752
S'7733-02-0'
p753
sS's00010854'
p754
S'7429-90-5'
p755
sS's00001429'
p756
S'6238-65-9'
p757
sS's00010856'
p758
S'7440-42-8'
p759
sS's00010857'
p760
S'7440-42-8'
p761
sS's00001428'
p762
S'405-31-2'
p763
sS's00005285'
p764
S'378-72-3'
p765
sS's00009434'
p766
S'13569-32-9'
p767
sS's00000526'
p768
S'122519-91-9'
p769
sS's00003126'
p770
S'2102-19-4'
p771
sS's00006352'
p772
S'88-06-2'
p773
sS's00001958'
p774
S'603-36-1'
p775
sS's00003950'
p776
S'7445-60-5'
p777
sS's00001953'
p778
S'603-33-8'
p779
sS's00001952'
p780
S'960-71-4'
p781
sS's00001951'
p782
S'1153-05-5'
p783
sS's00001950'
p784
S'603-32-7'
p785
sS's00001957'
p786
S'3878-45-3'
p787
sS's00001956'
p788
S'603-35-0'
p789
sS's00001955'
p790
S'791-28-6'
p791
sS's00001423'
p792
S'34883-41-5'
p793
sS's00009435'
p794
S'7772-99-8'
p795
sS's00008325'
p796
S'17376-04-4'
p797
sS's00001974'
p798
S'41367-67-3'
p799
sS's00001420'
p800
S'33146-45-1'
p801
sS's00006636'
p802
S'638-21-1'
p803
sS's00010580'
p804
S'98206-69-0'
p805
sS's00001426'
p806
S'396-64-5'
p807
sS's00009238'
p808
S'393794-51-9'
p809
sS's00003030'
p810
S'55186-09-9'
p811
sS's00006474'
p812
S'77461-06-4'
p813
sS's00010612'
p814
S'591755-78-1'
p815
sS's00009239'
p816
S'442198-04-1'
p817
sS's00008613'
p818
S'4551-15-9'
p819
sS's00008960'
p820
S'26443-88-9'
p821
sS's00008963'
p822
S'558-22-5'
p823
sS's00008965'
p824
S'558-04-3'
p825
sS's00008964'
p826
S'95758-74-0'
p827
sS's00008615'
p828
S'934-56-5'
p829
sS's00008966'
p830
S'3017-23-0'
p831
sS's00008969'
p832
S'90965-57-4'
p833
sS's00008968'
p834
S'24286-05-3'
p835
sS's00000296'
p836
S'1796-71-0'
p837
sS's00007344'
p838
S'95-49-8'
p839
sS's00007345'
p840
S'100-44-7'
p841
sS's00007346'
p842
S'106-43-4'
p843
sS's00007347'
p844
S'108-41-8'
p845
sS's00007340'
p846
S'591-17-3'
p847
sS's00007341'
p848
S'104-92-7'
p849
sS's00007342'
p850
S'578-57-4'
p851
sS's00007343'
p852
S'104-95-0'
p853
sS's00006123'
p854
S'30310-22-6'
p855
sS's00006122'
p856
S'3377-86-4'
p857
sS's00006121'
p858
S'1647-23-0'
p859
sS's00006120'
p860
S'626-88-0'
p861
sS's00007348'
p862
S'1609-39-8'
p863
sS's00007349'
p864
S'2294-41-9'
p865
sS's00006125'
p866
S'544-10-5'
p867
sS's00006124'
p868
S'51116-73-5'
p869
sS's00000609'
p870
S'51481-61-9'
p871
sS's00001771'
p872
S'68825-40-1'
p873
sS's00001770'
p874
S'68825-39-8'
p875
sS's00000356'
p876
S'1291-40-3'
p877
sS's00004067'
p878
S'443784-33-6'
p879
sS's00000352'
p880
S'779-69-1'
p881
sS's00000353'
p882
S'121329-75-7'
p883
sS's00009430'
p884
S'10545-99-0'
p885
sS's00003555'
p886
S'109-64-8'
p887
sS's00003554'
p888
S'78-75-1'
p889
sS's00003885'
p890
S'12602-63-0'
p891
sS's00003556'
p892
S'109-70-6'
p893
sS's00000198'
p894
S'40423-14-1'
p895
sS's00003550'
p896
S'22451-18-9'
p897
sS's00003553'
p898
S'438543-92-1'
p899
sS's00003552'
p900
S'38816-79-4'
p901
sS's00000194'
p902
S'14519-11-0'
p903
sS's00000195'
p904
S'13967-29-8'
p905
sS's00000196'
p906
S'13444-87-6'
p907
sS's00000197'
p908
S'13536-70-4'
p909
sS's00000190'
p910
S'7789-33-5'
p911
sS's00000191'
p912
S'14280-53-6'
p913
sS's00000192'
p914
S'7758-02-3'
p915
sS's00000193'
p916
S'7550-35-8'
p917
sS's00010736'
p918
S'23444-30-6'
p919
sS's00000501'
p920
S'92688-78-3'
p921
sS's00007220'
p922
S'402-44-8'
p923
sS's00007238'
p924
S'98-07-7'
p925
sS's00008766'
p926
S'4513-41-1'
p927
sS's00004853'
p928
S'14100-30-2'
p929
sS's00004852'
p930
S'72408-80-1'
p931
sS's00004855'
p932
S'26319-33-5'
p933
sS's00004854'
p934
S'14099-01-5'
p935
sS's00004857'
p936
S'54927-77-4'
p937
sS's00004856'
p938
S'7426-92-8'
p939
sS's00004859'
p940
S'5152-54-5'
p941
sS's00004858'
p942
S'92177-14-5'
p943
sS's00007233'
p944
S'618-32-6'
p945
sS's00007234'
p946
S'1122-91-4'
p947
sS's00007235'
p948
S'585-76-2'
p949
sS's00007236'
p950
S'586-76-5'
p951
sS's00008768'
p952
S'395-45-9'
p953
sS's00009496'
p954
S'24801-48-7'
p955
sS's00009497'
p956
S'13637-87-1'
p957
sS's00009494'
p958
S'7758-89-6'
p959
sS's00009495'
p960
S'7790-89-8'
p961
sS's00009492'
p962
S'87331-16-6'
p963
sS's00009493'
p964
S'95860-64-3'
p965
sS's00009490'
p966
S'12715-99-0'
p967
sS's00009491'
p968
S'7647-17-8'
p969
sS's00004455'
p970
S'110-75-8'
p971
sS's00004454'
p972
S'76118-61-1'
p973
sS's00004457'
p974
S'105-39-5'
p975
sS's00004456'
p976
S'4091-39-8'
p977
sS's00004451'
p978
S'4461-41-0'
p979
sS's00008142'
p980
S'97229-08-8'
p981
sS's00008141'
p982
S'934-85-0'
p983
sS's00008140'
p984
S'68006-17-7'
p985
sS's00000773'
p986
S'1825-31-6'
p987
sS's00000774'
p988
S'1762-41-0'
p989
sS's00003232'
p990
S'78522-47-1'
p991
sS's00010413'
p992
S'12597-17-0'
p993
sS's00000778'
p994
S'3968-63-6'
p995
sS's00000779'
p996
S'209-22-3'
p997
sS's00003233'
p998
S'73551-02-7'
p999
sS's00000280'
p1000
S'1796-61-8'
p1001
sS's00009365'
p1002
S'155941-09-6'
p1003
sS's00009366'
p1004
S'12326-85-1'
p1005
sS's00009811'
p1006
S'14457-65-9'
p1007
sS's00000284'
p1008
S'1796-70-9'
p1009
sS's00000285'
p1010
S'19759-34-3'
p1011
sS's00000286'
p1012
S'63340-05-6'
p1013
sS's00000287'
p1014
S'1796-62-9'
p1015
sS's00000288'
p1016
S'19759-26-3'
p1017
sS's00000289'
p1018
S'19759-43-4'
p1019
sS's00008541'
p1020
S'83947-07-3'
p1021
sS's00008540'
p1022
S'13596-75-3'
p1023
sS's00009368'
p1024
S'75-15-0'
p1025
sS's00009369'
p1026
S'15644-49-2'
p1027
sS's00003957'
p1028
S'1516-64-9'
p1029
sS's00003956'
p1030
S'382-21-8'
p1031
sS's00002593'
p1032
S'16520-13-1'
p1033
sS's00009563'
p1034
S'12184-83-7'
p1035
sS's00009560'
p1036
S'1333-82-0'
p1037
sS's00009561'
p1038
S'7440-46-2'
p1039
sS's00009566'
p1040
S'7789-17-5'
p1041
sS's00009567'
p1042
S'12331-81-6'
p1043
sS's00009564'
p1044
S'20281-00-9'
p1045
sS's00009565'
p1046
S'13400-13-0'
p1047
sS's00009568'
p1048
S'12018-59-6'
p1049
sS's00009569'
p1050
S'12018-60-9'
p1051
sS's00001391'
p1052
S'38964-22-6'
p1053
sS's00001390'
p1054
S'33857-26-0'
p1055
sS's00001393'
p1056
S'26914-33-0'
p1057
sS's00001392'
p1058
S'2437-79-8'
p1059
sS's00001395'
p1060
S'41464-39-5'
p1061
sS's00001394'
p1062
S'33284-52-5'
p1063
sS's00001397'
p1064
S'7012-37-5'
p1065
sS's00001399'
p1066
S'16606-02-3'
p1067
sS's00001398'
p1068
S'15862-07-4'
p1069
sS's00009380'
p1070
S'10102-68-8'
p1071
sS's00009381'
p1072
S'1305-78-8'
p1073
sS's00009386'
p1074
S'1306-19-0'
p1075
sS's00009387'
p1076
S'7440-45-1'
p1077
sS's00009384'
p1078
S'7440-43-9'
p1079
sS's00009385'
p1080
S'13966-86-4'
p1081
sS's00010622'
p1082
S'626-00-6'
p1083
sS's00010621'
p1084
S'615-42-9'
p1085
sS's00010620'
p1086
S'29382-90-9'
p1087
sS's00010627'
p1088
S'542813-69-4'
p1089
sS's00004078'
p1090
S'928-05-2'
p1091
sS's00004075'
p1092
S'92063-67-7'
p1093
sS's00009734'
p1094
S'7783-81-5'
p1095
sS's00004073'
p1096
S'865-52-1'
p1097
sS's00004072'
p1098
S'30004-14-9'
p1099
sS's00004071'
p1100
S'3348-44-5'
p1101
sS's00004070'
p1102
S'1605-65-8'
p1103
sS's00007673'
p1104
S'672-66-2'
p1105
sS's00003918'
p1106
S'64771-59-1'
p1107
sS's00005702'
p1108
S'3109-91-9'
p1109
sS's00003466'
p1110
S'40510-81-4'
p1111
sS's00010609'
p1112
S'591755-77-0'
p1113
sS's00009706'
p1114
S'13774-85-1'
p1115
sS's00009707'
p1116
S'13824-74-3'
p1117
sS's00009704'
p1118
S'13520-79-1'
p1119
sS's00009301'
p1120
S'114282-88-1'
p1121
sS's00009702'
p1122
S'17026-29-8'
p1123
sS's00009703'
p1124
S'13709-54-1'
p1125
sS's00009700'
p1126
S'70487-60-4'
p1127
sS's00009701'
p1128
S'10036-47-2'
p1129
sS's00001485'
p1130
S'2491-56-7'
p1131
sS's00001486'
p1132
S'19116-23-5'
p1133
sS's00009708'
p1134
S'7783-59-7'
p1135
sS's00009709'
p1136
S'13455-15-7'
p1137
sS's00009030'
p1138
S'1558-25-4'
p1139
sS's00009031'
p1140
S'593-70-4'
p1141
sS's00009032'
p1142
S'593-71-5'
p1143
sS's00009033'
p1144
S'443690-18-4'
p1145
sS's00009034'
p1146
S'497952-36-0'
p1147
sS's00002922'
p1148
S'13245-53-9'
p1149
sS's00005703'
p1150
S'756-13-8'
p1151
sS's00009037'
p1152
S'114282-89-2'
p1153
sS's00009038'
p1154
S'222555-69-3'
p1155
sS's00009039'
p1156
S'73761-32-7'
p1157
sS's00005250'
p1158
S'84520-95-6'
p1159
sS's00002929'
p1160
S'812-04-4'
p1161
sS's00002928'
p1162
S'354-23-4'
p1163
sS's00002457'
p1164
S'79-08-3'
p1165
sS's00002456'
p1166
S'17157-48-1'
p1167
sS's00002455'
p1168
S'506-96-7'
p1169
sS's00002454'
p1170
S'16188-37-7'
p1171
sS's00002452'
p1172
S'115523-13-2'
p1173
sS's00002451'
p1174
S'420-43-9'
p1175
sS's00002450'
p1176
S'78-74-0'
p1177
sS's00006981'
p1178
S'114646-23-0'
p1179
sS's00002459'
p1180
S'93843-97-1'
p1181
sS's00002458'
p1182
S'75-01-4'
p1183
sS's00010137'
p1184
S'12281-10-6'
p1185
sS's00010136'
p1186
S'7440-60-0'
p1187
sS's00010135'
p1188
S'21908-53-2'
p1189
sS's00010134'
p1190
S'7774-29-0'
p1191
sS's00010133'
p1192
S'12596-25-7'
p1193
sS's00010132'
p1194
S'7439-97-6'
p1195
sS's00010131'
p1196
S'12029-22-0'
p1197
sS's00010130'
p1198
S'7440-58-6'
p1199
sS's00006982'
p1200
S'18068-26-3'
p1201
sS's00004679'
p1202
S'54261-38-0'
p1203
sS's00004678'
p1204
S'10152-76-8'
p1205
sS's00010138'
p1206
S'14362-44-8'
p1207
sS's00002853'
p1208
S'29414-47-9'
p1209
sS's00002852'
p1210
S'624-92-0'
p1211
sS's00009638'
p1212
S'12020-61-0'
p1213
sS's00009639'
p1214
S'39432-21-8'
p1215
sS's00009148'
p1216
S'16056-34-1'
p1217
sS's00009149'
p1218
S'143-36-2'
p1219
sS's00002855'
p1220
S'76274-47-0'
p1221
sS's00002854'
p1222
S'3658-80-8'
p1223
sS's00009632'
p1224
S'13813-42-8'
p1225
sS's00009633'
p1226
S'12280-61-4'
p1227
sS's00009630'
p1228
S'16087-67-5'
p1229
sS's00009631'
p1230
S'16087-65-3'
p1231
sS's00009636'
p1232
S'12020-60-9'
p1233
sS's00009637'
p1234
S'88762-30-5'
p1235
sS's00009634'
p1236
S'7429-92-7'
p1237
sS's00009635'
p1238
S'7440-53-1'
p1239
sS's00002448'
p1240
S'593-60-2'
p1241
sS's00002639'
p1242
S'292832-78-1'
p1243
sS's00002638'
p1244
S'24901-66-4'
p1245
sS's00002633'
p1246
S'359-15-9'
p1247
sS's00002632'
p1248
S'359-13-7'
p1249
sS's00002631'
p1250
S'65167-95-5'
p1251
sS's00002630'
p1252
S'624-72-6'
p1253
sS's00002635'
p1254
S'15403-23-3'
p1255
sS's00002634'
p1256
S'753-90-2'
p1257
sS's00010576'
p1258
S'591755-74-7'
p1259
sS's00009439'
p1260
S'11094-65-8'
p1261
sS's00004709'
p1262
S'38442-51-2'
p1263
sS's00004708'
p1264
S'27151-74-2'
p1265
sS's00010009'
p1266
S'13709-83-6'
p1267
sS's00010008'
p1268
S'10325-39-0'
p1269
sS's00004701'
p1270
S'78-86-4'
p1271
sS's00004459'
p1272
S'542-58-5'
p1273
sS's00004703'
p1274
S'507-20-0'
p1275
sS's00004702'
p1276
S'109-69-3'
p1277
sS's00004705'
p1278
S'25979-07-1'
p1279
sS's00004704'
p1280
S'513-36-0'
p1281
sS's00004707'
p1282
S'543-63-5'
p1283
sS's00004706'
p1284
S'17776-56-6'
p1285
sS's00007350'
p1286
S'68364-30-7'
p1287
sS's00007357'
p1288
S'4409-83-0'
p1289
sS's00009120'
p1290
S'15454-33-8'
p1291
sS's00005707'
p1292
S'355-42-0'
p1293
sS's00000991'
p1294
S'65512-08-5'
p1295
sS's00000091'
p1296
S'10294-34-5'
p1297
sS's00002444'
p1298
S'38156-25-1'
p1299
sS's00007354'
p1300
S'873-63-2'
p1301
sS's00002709'
p1302
S'1498-40-4'
p1303
sS's00002708'
p1304
S'75-00-3'
p1305
sS's00002707'
p1306
S'13057-17-5'
p1307
sS's00002706'
p1308
S'540-51-2'
p1309
sS's00002705'
p1310
S'74-96-4'
p1311
sS's00002704'
p1312
S'43337-53-7'
p1313
sS's00002702'
p1314
S'146895-04-7'
p1315
sS's00002701'
p1316
S'132046-53-8'
p1317
sS's00002700'
p1318
S'425371-30-8'
p1319
sS's00010128'
p1320
S'12184-98-4'
p1321
sS's00001811'
p1322
S'21679-31-2'
p1323
sS's00003955'
p1324
S'360-89-4'
p1325
sS's00010319'
p1326
S'7446-11-9'
p1327
sS's00010318'
p1328
S'12036-36-1'
p1329
sS's00010313'
p1330
S'1314-23-4'
p1331
sS's00010311'
p1332
S'12036-22-5'
p1333
sS's00010310'
p1334
S'1344-57-6'
p1335
sS's00006286'
p1336
S'1686-22-2'
p1337
sS's00006287'
p1338
S'597-50-2'
p1339
sS's00006285'
p1340
S'78-40-0'
p1341
sS's00006282'
p1342
S'126-68-1'
p1343
sS's00006283'
p1344
S'2651-89-0'
p1345
sS's00006281'
p1346
S'122-52-1'
p1347
sS's00001573'
p1348
S'134-85-0'
p1349
sS's00001740'
p1350
S'33021-47-5'
p1351
sS's00006288'
p1352
S'554-70-1'
p1353
sS's00006289'
p1354
S'617-85-6'
p1355
sS's00004337'
p1356
S'24330-31-2'
p1357
sS's00007638'
p1358
S'17530-69-7'
p1359
sS's00004572'
p1360
S'819-06-7'
p1361
sS's00010089'
p1362
S'29335-37-3'
p1363
sS's00000092'
p1364
S'22395-93-3'
p1365
sS's00009503'
p1366
S'13780-57-9'
p1367
sS's00006354'
p1368
S'367-23-7'
p1369
sS's00002144'
p1370
S'430-85-3'
p1371
sS's00002147'
p1372
S'15219-34-8'
p1373
sS's00002146'
p1374
S'124-73-2'
p1375
sS's00010381'
p1376
S'12069-00-0'
p1377
sS's00002140'
p1378
S'359-55-7'
p1379
sS's00002143'
p1380
S'624-61-3'
p1381
sS's00004712'
p1382
S'558-42-9'
p1383
sS's00004333'
p1384
S'78087-12-4'
p1385
sS's00006358'
p1386
S'13601-24-6'
p1387
sS's00010145'
p1388
S'10101-63-0'
p1389
sS's00004998'
p1390
S'38103-97-8'
p1391
sS's00000935'
p1392
S'33274-44-1'
p1393
sS's00004999'
p1394
S'38302-75-9'
p1395
sS's00003856'
p1396
S'422-64-0'
p1397
sS's00004458'
p1398
S'108-23-6'
p1399
sS's00010403'
p1400
S'13798-23-7'
p1401
sS's00010829'
p1402
S'12035-72-2'
p1403
sS's00010828'
p1404
S'12035-51-7'
p1405
sS's00003438'
p1406
S'106-95-6'
p1407
sS's00003439'
p1408
S'557-93-7'
p1409
sS's00010827'
p1410
S'12035-51-7'
p1411
sS's00010826'
p1412
S'14782-23-1'
p1413
sS's00003432'
p1414
S'822-38-8'
p1415
sS's00003433'
p1416
S'356535-02-9'
p1417
sS's00010823'
p1418
S'10578-16-2'
p1419
sS's00003431'
p1420
S'53439-64-8'
p1421
sS's00004233'
p1422
S'110-02-1'
p1423
sS's00000094'
p1424
S'23361-55-9'
p1425
sS's00003933'
p1426
S'1441-56-1'
p1427
sS's00008819'
p1428
S'51500-43-7'
p1429
sS's00008818'
p1430
S'33945-86-7'
p1431
sS's00007530'
p1432
S'25463-33-6'
p1433
sS's00004345'
p1434
S'512-51-6'
p1435
sS's00008813'
p1436
S'6224-55-1'
p1437
sS's00003132'
p1438
S'356535-05-2'
p1439
sS's00008814'
p1440
S'6406-91-3'
p1441
sS's00010649'
p1442
S'335-57-9'
p1443
sS's00005709'
p1444
S'13601-14-4'
p1445
sS's00006750'
p1446
S'19258-85-6'
p1447
sS's00006751'
p1448
S'65330-65-6'
p1449
sS's00006752'
p1450
S'367-64-6'
p1451
sS's00006753'
p1452
S'400-52-2'
p1453
sS's00006754'
p1454
S'74725-75-0'
p1455
sS's00010814'
p1456
S'19067-62-0'
p1457
sS's00006623'
p1458
S'137-07-5'
p1459
sS's00006624'
p1460
S'2044-27-1'
p1461
sS's00006625'
p1462
S'6887-59-8'
p1463
sS's00006626'
p1464
S'18438-38-5'
p1465
sS's00006627'
p1466
S'18794-33-7'
p1467
sS's00006628'
p1468
S'22581-72-2'
p1469
sS's00006629'
p1470
S'2240-85-9'
p1471
sS's00010607'
p1472
S'591755-75-8'
p1473
sS's00006415'
p1474
S'1493-27-2'
p1475
sS's00004542'
p1476
S'55615-38-8'
p1477
sS's00003722'
p1478
S'69165-81-7'
p1479
sS's00003723'
p1480
S'758-16-7'
p1481
sS's00006414'
p1482
S'402-67-5'
p1483
sS's00000096'
p1484
S'13842-55-2'
p1485
sS's00006413'
p1486
S'350-46-9'
p1487
sS's00003149'
p1488
S'931-91-9'
p1489
sS's00003467'
p1490
S'1117-89-1'
p1491
sS's00006412'
p1492
S'63920-62-7'
p1493
sS's00008972'
p1494
S'3889-75-6'
p1495
sS's00008973'
p1496
S'2154-59-8'
p1497
sS's00000180'
p1498
S'7787-69-1'
p1499
sS's00008976'
p1500
S'17409-94-8'
p1501
sS's00010812'
p1502
S'13780-28-4'
p1503
sS's00008974'
p1504
S'66720-78-3'
p1505
sS's00008975'
p1506
S'157066-33-6'
p1507
sS's00000187'
p1508
S'15607-89-3'
p1509
sS's00008978'
p1510
S'126463-76-1'
p1511
sS's00006410'
p1512
S'3796-23-4'
p1513
sS's00007639'
p1514
S'768-33-2'
p1515
sS's00000186'
p1516
S'7789-30-2'
p1517
sS's00001833'
p1518
S'93951-69-0'
p1519
sS's00001834'
p1520
S'1493-68-1'
p1521
sS's00000185'
p1522
S'14049-39-9'
p1523
sS's00006134'
p1524
S'638-45-9'
p1525
sS's00000184'
p1526
S'7787-71-5'
p1527
sS's00006130'
p1528
S'62016-93-7'
p1529
sS's00006131'
p1530
S'62016-94-8'
p1531
sS's00006132'
p1532
S'17774-09-3'
p1533
sS's00006133'
p1534
S'15972-93-7'
p1535
sS's00010506'
p1536
S'311-81-9'
p1537
sS's00009609'
p1538
S'7698-05-7'
p1539
sS's00010507'
p1540
S'118449-56-2'
p1541
sS's00003890'
p1542
S'52931-58-5'
p1543
sS's00003892'
p1544
S'59982-49-9'
p1545
sS's00003893'
p1546
S'109545-35-9'
p1547
sS's00003894'
p1548
S'719287-23-7'
p1549
sS's00009506'
p1550
S'13637-84-8'
p1551
sS's00009953'
p1552
S'666816-46-2'
p1553
sS's00000160'
p1554
S'7789-60-8'
p1555
sS's00000163'
p1556
S'13450-92-5'
p1557
sS's00009507'
p1558
S'7616-94-6'
p1559
sS's00009957'
p1560
S'6484-52-2'
p1561
sS's00000164'
p1562
S'13777-22-5'
p1563
sS's00010481'
p1564
S'17030-74-9'
p1565
sS's00009954'
p1566
S'7782-65-2'
p1567
sS's00000169'
p1568
S'15608-37-4'
p1569
sS's00010502'
p1570
S'79-28-7'
p1571
sS's00007394'
p1572
S'2227-79-4'
p1573
sS's00007393'
p1574
S'15795-42-3'
p1575
sS's00007392'
p1576
S'15182-74-8'
p1577
sS's00008058'
p1578
S'544-40-1'
p1579
sS's00009502'
p1580
S'13637-63-3'
p1581
sS's00008770'
p1582
S'402-50-6'
p1583
sS's00008771'
p1584
S'52144-69-1'
p1585
sS's00008772'
p1586
S'451-69-4'
p1587
sS's00008773'
p1588
S'90276-19-0'
p1589
sS's00008774'
p1590
S'12108-13-3'
p1591
sS's00009602'
p1592
S'13762-95-3'
p1593
sS's00003936'
p1594
S'6381-03-9'
p1595
sS's00007249'
p1596
S'98-17-9'
p1597
sS's00007248'
p1598
S'98-08-8'
p1599
sS's00004845'
p1600
S'14516-54-2'
p1601
sS's00007245'
p1602
S'2154-54-3'
p1603
sS's00007244'
p1604
S'1885-14-9'
p1605
sS's00007247'
p1606
S'3592-47-0'
p1607
sS's00007246'
p1608
S'1124-18-1'
p1609
sS's00007241'
p1610
S'104-88-1'
p1611
sS's00007240'
p1612
S'98-88-4'
p1613
sS's00007243'
p1614
S'535-80-8'
p1615
sS's00007242'
p1616
S'74-11-3'
p1617
sS's00003135'
p1618
S'39091-63-9'
p1619
sS's00008154'
p1620
S'25660-64-4'
p1621
sS's00004448'
p1622
S'927-73-1'
p1623
sS's00004449'
p1624
S'1120-57-6'
p1625
sS's00001166'
p1626
S'7343-31-9'
p1627
sS's00004447'
p1628
S'591-97-9'
p1629
sS's00004444'
p1630
S'513-37-1'
p1631
sS's00001165'
p1632
S'12129-69-0'
p1633
sS's00001162'
p1634
S'69135-34-8'
p1635
sS's00001160'
p1636
S'69135-32-6'
p1637
sS's00004441'
p1638
S'3395-91-3'
p1639
sS's00000161'
p1640
S'13842-48-3'
p1641
sS's00001324'
p1642
S'4806-74-0'
p1643
sS's00008053'
p1644
S'10495-45-1'
p1645
sS's00002628'
p1646
S'52067-19-3'
p1647
sS's00009827'
p1648
S'7787-52-2'
p1649
sS's00009299'
p1650
S'1493-03-4'
p1651
sS's00003948'
p1652
S'407-25-0'
p1653
sS's00009824'
p1654
S'15119-97-8'
p1655
sS's00008558'
p1656
S'1833-51-8'
p1657
sS's00008559'
p1658
S'17881-63-9'
p1659
sS's00008554'
p1660
S'37773-42-5'
p1661
sS's00008555'
p1662
S'37773-43-6'
p1663
sS's00003940'
p1664
S'663-45-6'
p1665
sS's00008557'
p1666
S'1833-31-4'
p1667
sS's00008550'
p1668
S'874-79-3'
p1669
sS's00008551'
p1670
S'3019-20-3'
p1671
sS's00008552'
p1672
S'34786-24-8'
p1673
sS's00008553'
p1674
S'22233-89-2'
p1675
sS's00009557'
p1676
S'12018-00-7'
p1677
sS's00009556'
p1678
S'7788-97-8'
p1679
sS's00009555'
p1680
S'10049-10-2'
p1681
sS's00009554'
p1682
S'13943-42-5'
p1683
sS's00009553'
p1684
S'7440-47-3'
p1685
sS's00009552'
p1686
S'1307-96-6'
p1687
sS's00009551'
p1688
S'7440-48-4'
p1689
sS's00009550'
p1690
S'7440-51-9'
p1691
sS's00009425'
p1692
S'7719-09-7'
p1693
sS's00001765'
p1694
S'19771-07-4'
p1695
sS's00001766'
p1696
S'19771-10-9'
p1697
sS's00009558'
p1698
S'12018-01-8'
p1699
sS's00001382'
p1700
S'67028-17-5'
p1701
sS's00001383'
p1702
S'18259-05-7'
p1703
sS's00001380'
p1704
S'40581-93-9'
p1705
sS's00001381'
p1706
S'39227-58-2'
p1707
sS's00001386'
p1708
S'38380-03-9'
p1709
sS's00001387'
p1710
S'94650-53-0'
p1711
sS's00001384'
p1712
S'25429-29-2'
p1713
sS's00001385'
p1714
S'38379-99-6'
p1715
sS's00001388'
p1716
S'5409-83-6'
p1717
sS's00001389'
p1718
S'29446-15-9'
p1719
sS's00005001'
p1720
S'82810-49-9'
p1721
sS's00005000'
p1722
S'71240-37-4'
p1723
sS's00000019'
p1724
S'7785-23-1'
p1725
sS's00004061'
p1726
S'627-49-6'
p1727
sS's00004062'
p1728
S'2501-94-2'
p1729
sS's00004063'
p1730
S'28576-83-2'
p1731
sS's00004066'
p1732
S'20670-29-5'
p1733
sS's00009424'
p1734
S'12381-09-8'
p1735
sS's00004068'
p1736
S'443901-81-3'
p1737
sS's00004069'
p1738
S'6562-41-0'
p1739
sS's00000015'
p1740
S'7440-34-8'
p1741
sS's00010639'
p1742
S'95896-89-2'
p1743
sS's00000017'
p1744
S'12187-06-3'
p1745
sS's00000016'
p1746
S'7440-22-4'
p1747
sS's00009739'
p1748
S'14929-46-5'
p1749
sS's00009738'
p1750
S'13966-78-4'
p1751
sS's00000479'
p1752
S'10210-64-7'
p1753
sS's00006095'
p1754
S'2765-04-0'
p1755
sS's00009733'
p1756
S'13830-68-7'
p1757
sS's00009732'
p1758
S'2551-62-4'
p1759
sS's00009731'
p1760
S'10049-17-9'
p1761
sS's00008827'
p1762
S'5798-75-4'
p1763
sS's00000385'
p1764
S'77355-29-4'
p1765
sS's00002235'
p1766
S'144514-02-3'
p1767
sS's00009735'
p1768
S'7783-82-6'
p1769
sS's00000386'
p1770
S'78725-88-9'
p1771
sS's00005698'
p1772
S'356-42-3'
p1773
sS's00004401'
p1774
S'77-77-0'
p1775
sS's00007632'
p1776
S'2388-68-3'
p1777
sS's00001498'
p1778
S'146879-90-5'
p1779
sS's00006311'
p1780
S'18182-40-6'
p1781
sS's00002233'
p1782
S'63403-57-6'
p1783
sS's00007633'
p1784
S'2388-69-4'
p1785
sS's00009045'
p1786
S'4960-86-5'
p1787
sS's00009044'
p1788
S'5581-55-5'
p1789
sS's00009046'
p1790
S'35692-88-7'
p1791
sS's00009041'
p1792
S'676-55-1'
p1793
sS's00009040'
p1794
S'10457-11-1'
p1795
sS's00009043'
p1796
S'73344-94-2'
p1797
sS's00002441'
p1798
S'157-20-0'
p1799
sS's00002442'
p1800
S'18282-77-4'
p1801
sS's00002443'
p1802
S'7092-01-5'
p1803
sS's00009049'
p1804
S'58456-46-5'
p1805
sS's00002445'
p1806
S'61134-37-0'
p1807
sS's00002446'
p1808
S'356534-99-1'
p1809
sS's00006315'
p1810
S'4375-83-1'
p1811
sS's00005711'
p1812
S'527-21-9'
p1813
sS's00010129'
p1814
S'12162-16-2'
p1815
sS's00005713'
p1816
S'827-15-6'
p1817
sS's00005712'
p1818
S'4605-23-6'
p1819
sS's00005715'
p1820
S'392-56-3'
p1821
sS's00005714'
p1822
S'1423-13-8'
p1823
sS's00005717'
p1824
S'10524-09-1'
p1825
sS's00005716'
p1826
S'6733-01-3'
p1827
sS's00010120'
p1828
S'13940-22-2'
p1829
sS's00010122'
p1830
S'13940-36-8'
p1831
sS's00010123'
p1832
S'13776-99-3'
p1833
sS's00006350'
p1834
S'108-70-3'
p1835
sS's00010125'
p1836
S'13981-87-8'
p1837
sS's00010126'
p1838
S'13940-37-9'
p1839
sS's00010127'
p1840
S'7440-59-7'
p1841
sS's00004667'
p1842
S'625-60-5'
p1843
sS's00009944'
p1844
S'7803-51-2'
p1845
sS's00001065'
p1846
S'12093-05-9'
p1847
sS's00006250'
p1848
S'4253-91-2'
p1849
sS's00005706'
p1850
S'354-96-1'
p1851
sS's00003193'
p1852
S'18365-18-9'
p1853
sS's00004668'
p1854
S'926-67-0'
p1855
sS's00004669'
p1856
S'1600-44-8'
p1857
sS's00002845'
p1858
S'66-27-3'
p1859
sS's00002846'
p1860
S'616-42-2'
p1861
sS's00002847'
p1862
S'67-68-5'
p1863
sS's00002239'
p1864
S'52183-15-0'
p1865
sS's00002842'
p1866
S'67-71-0'
p1867
sS's00008173'
p1868
S'3172-56-3'
p1869
sS's00009607'
p1870
S'13536-59-9'
p1871
sS's00009606'
p1872
S'13537-08-1'
p1873
sS's00009605'
p1874
S'20396-66-1'
p1875
sS's00009603'
p1876
S'13537-07-0'
p1877
sS's00004422'
p1878
S'1748-15-8'
p1879
sS's00009601'
p1880
S'13537-06-9'
p1881
sS's00009600'
p1882
S'69103-84-0'
p1883
sS's00009945'
p1884
S'7803-52-3'
p1885
sS's00008171'
p1886
S'95-15-8'
p1887
sS's00000167'
p1888
S'7789-68-6'
p1889
sS's00002629'
p1890
S'75-37-6'
p1891
sS's00002624'
p1892
S'23072-56-2'
p1893
sS's00002626'
p1894
S'77938-53-5'
p1895
sS's00002627'
p1896
S'28761-00-4'
p1897
sS's00002621'
p1898
S'38454-87-4'
p1899
sS's00002622'
p1900
S'23705-67-1'
p1901
sS's00002623'
p1902
S'3652-85-5'
p1903
sS's00000046'
p1904
S'23330-87-2'
p1905
sS's00000166'
p1906
S'7789-67-5'
p1907
sS's00004719'
p1908
S'353-61-7'
p1909
sS's00010018'
p1910
S'13517-11-8'
p1911
sS's00010019'
p1912
S'17740-82-8'
p1913
sS's00000047'
p1914
S'7440-35-9'
p1915
sS's00010014'
p1916
S'12009-08-4'
p1917
sS's00010015'
p1918
S'13597-97-2'
p1919
sS's00010016'
p1920
S'20768-68-7'
p1921
sS's00010017'
p1922
S'10035-10-6'
p1923
sS's00004716'
p1924
S'13183-68-1'
p1925
sS's00010011'
p1926
S'20611-59-0'
p1927
sS's00010012'
p1928
S'13460-50-9'
p1929
sS's00010013'
p1930
S'14457-85-3'
p1931
sS's00002938'
p1932
S'354-12-1'
p1933
sS's00002939'
p1934
S'354-15-4'
p1935
sS's00000045'
p1936
S'20859-73-8'
p1937
sS's00004713'
p1938
S'928-51-8'
p1939
sS's00002931'
p1940
S'147703-27-3'
p1941
sS's00002932'
p1942
S'359-32-0'
p1943
sS's00002933'
p1944
S'63034-44-6'
p1945
sS's00009947'
p1946
S'18099-45-1'
p1947
sS's00002935'
p1948
S'79-01-6'
p1949
sS's00000043'
p1950
S'11092-32-3'
p1951
sS's00004711'
p1952
S'507-40-4'
p1953
sS's00000041'
p1954
S'58875-12-0'
p1955
sS's00004717'
p1956
S'3972-25-6'
p1957
sS's00002710'
p1958
S'19469-04-6'
p1959
sS's00002711'
p1960
S'115-21-9'
p1961
sS's00002712'
p1962
S'1558-33-4'
p1963
sS's00002713'
p1964
S'107-27-7'
p1965
sS's00002714'
p1966
S'107-07-3'
p1967
sS's00004714'
p1968
S'7081-78-9'
p1969
sS's00002716'
p1970
S'594-01-4'
p1971
sS's00002717'
p1972
S'624-85-1'
p1973
sS's00002719'
p1974
S'2373-51-5'
p1975
sS's00004715'
p1976
S'36215-07-3'
p1977
sS's00005530'
p1978
S'40697-99-2'
p1979
sS's00010300'
p1980
S'12137-27-8'
p1981
sS's00010302'
p1982
S'7446-09-5'
p1983
sS's00010303'
p1984
S'53238-43-0'
p1985
sS's00010306'
p1986
S'18282-10-5'
p1987
sS's00010307'
p1988
S'12534-17-7'
p1989
sS's00010308'
p1990
S'1314-20-1'
p1991
sS's00010309'
p1992
S'13463-67-7'
p1993
sS's00007211'
p1994
S'771-56-2'
p1995
sS's00009370'
p1996
S'16674-18-3'
p1997
sS's00007216'
p1998
S'98-15-7'
p1999
sS's00009377'
p2000
S'10043-52-4'
p2001
sS's00003772'
p2002
S'62-50-0'
p2003
sS's00009376'
p2004
S'15606-71-0'
p2005
sS's00002156'
p2006
S'354-55-2'
p2007
sS's00002157'
p2008
S'26395-29-9'
p2009
sS's00002155'
p2010
S'52434-78-3'
p2011
sS's00002152'
p2012
S'598-73-2'
p2013
sS's00002153'
p2014
S'354-31-4'
p2015
sS's00002151'
p2016
S'129357-94-4'
p2017
sS's00002158'
p2018
S'12012-32-7'
p2019
sS's00002159'
p2020
S'7572-29-4'
p2021
sS's00000951'
p2022
S'15733-63-8'
p2023
sS's00000952'
p2024
S'23002-61-1'
p2025
sS's00000954'
p2026
S'132536-25-5'
p2027
sS's00009471'
p2028
S'7632-51-1'
p2029
sS's00006484'
p2030
S'1849-36-1'
p2031
sS's00009472'
p2032
S'13470-13-8'
p2033
sS's00008485'
p2034
S'39898-48-1'
p2035
sS's00003477'
p2036
S'1959-79-1'
p2037
sS's00003153'
p2038
S'425-82-1'
p2039
sS's00009378'
p2040
S'13827-26-4'
p2041
sS's00003155'
p2042
S'684-16-2'
p2043
sS's00003154'
p2044
S'428-59-1'
p2045
sS's00006437'
p2046
S'97073-99-9'
p2047
sS's00003156'
p2048
S'1187-93-5'
p2049
sS's00003159'
p2050
S'3248-60-0'
p2051
sS's00003158'
p2052
S'3170-79-4'
p2053
sS's00006385'
p2054
S'541-73-1'
p2055
sS's00006384'
p2056
S'106-46-7'
p2057
sS's00006383'
p2058
S'95-50-1'
p2059
sS's00006382'
p2060
S'3474-42-8'
p2061
sS's00006381'
p2062
S'3474-40-6'
p2063
sS's00006380'
p2064
S'2396-00-1'
p2065
sS's00006471'
p2066
S'31819-08-6'
p2067
sS's00009476'
p2068
S'10026-12-7'
p2069
sS's00009477'
p2070
S'10026-13-8'
p2071
sS's00003169'
p2072
S'114070-49-4'
p2073
sS's00007524'
p2074
S'105311-64-6'
p2075
sS's00007525'
p2076
S'6060-61-3'
p2077
sS's00007526'
p2078
S'307-34-6'
p2079
sS's00007527'
p2080
S'308-48-5'
p2081
sS's00007520'
p2082
S'36608-07-8'
p2083
sS's00007521'
p2084
S'105311-61-3'
p2085
sS's00007522'
p2086
S'105311-62-4'
p2087
sS's00007523'
p2088
S'105311-63-5'
p2089
sS's00002046'
p2090
S'57820-98-1'
p2091
sS's00007528'
p2092
S'26842-85-3'
p2093
sS's00008622'
p2094
S'16629-52-0'
p2095
sS's00006723'
p2096
S'84451-42-3'
p2097
sS's00009577'
p2098
S'13478-41-6'
p2099
sS's00009576'
p2100
S'12190-70-4'
p2101
sS's00005041'
p2102
S'630-17-1'
p2103
sS's00007093'
p2104
S'57660-96-5'
p2105
sS's00003714'
p2106
S'3374-22-9'
p2107
sS's00008947'
p2108
S'6853-31-2'
p2109
sS's00008946'
p2110
S'6142-51-4'
p2111
sS's00008945'
p2112
S'63562-23-2'
p2113
sS's00008944'
p2114
S'13031-32-8'
p2115
sS's00008943'
p2116
S'21536-39-0'
p2117
sS's00008942'
p2118
S'865-50-9'
p2119
sS's00008940'
p2120
S'1111-89-3'
p2121
sS's00005040'
p2122
S'507-36-8'
p2123
sS's00008949'
p2124
S'106611-84-1'
p2125
sS's00008948'
p2126
S'7263-60-7'
p2127
sS's00003393'
p2128
S'460-37-7'
p2129
sS's00003392'
p2130
S'2980-46-3'
p2131
sS's00003396'
p2132
S'132046-92-5'
p2133
sS's00003395'
p2134
S'4168-09-6'
p2135
sS's00003394'
p2136
S'425-88-7'
p2137
sS's00002715'
p2138
S'107-30-2'
p2139
sS's00010498'
p2140
S'1631-78-3'
p2141
sS's00007895'
p2142
S'1073-61-6'
p2143
sS's00003579'
p2144
S'677-41-8'
p2145
sS's00003578'
p2146
S'460-39-9'
p2147
sS's00005804'
p2148
S'400-59-9'
p2149
sS's00003573'
p2150
S'58308-67-1'
p2151
sS's00003572'
p2152
S'38816-77-2'
p2153
sS's00003571'
p2154
S'77938-58-0'
p2155
sS's00003570'
p2156
S'2875-95-8'
p2157
sS's00003577'
p2158
S'65149-64-6'
p2159
sS's00003576'
p2160
S'430-61-5'
p2161
sS's00003575'
p2162
S'420-45-1'
p2163
sS's00003574'
p2164
S'153619-89-7'
p2165
sS's00000172'
p2166
S'13701-85-4'
p2167
sS's00000173'
p2168
S'13517-13-0'
p2169
sS's00000170'
p2170
S'82867-86-5'
p2171
sS's00000171'
p2172
S'13470-11-6'
p2173
sS's00000176'
p2174
S'10024-43-8'
p2175
sS's00000177'
p2176
S'13863-41-7'
p2177
sS's00000175'
p2178
S'33517-16-7'
p2179
sS's00005801'
p2180
S'15679-00-2'
p2181
sS's00000178'
p2182
S'13465-74-2'
p2183
sS's00000179'
p2184
S'14740-93-3'
p2185
sS's00003375'
p2186
S'1517-49-3'
p2187
sS's00003377'
p2188
S'65146-94-3'
p2189
sS's00003376'
p2190
S'35438-33-6'
p2191
sS's00005042'
p2192
S'107-84-6'
p2193
sS's00007576'
p2194
S'135707-05-0'
p2195
sS's00007575'
p2196
S'2355-86-4'
p2197
sS's00004877'
p2198
S'3109-87-3'
p2199
sS's00009391'
p2200
S'12014-82-3'
p2201
sS's00004874'
p2202
S'678-26-2'
p2203
sS's00004873'
p2204
S'71743-89-0'
p2205
sS's00004872'
p2206
S'81747-61-7'
p2207
sS's00004871'
p2208
S'1514-90-5'
p2209
sS's00004870'
p2210
S'638-79-9'
p2211
sS's00007256'
p2212
S'455-38-9'
p2213
sS's00007257'
p2214
S'456-22-4'
p2215
sS's00007254'
p2216
S'456-48-4'
p2217
sS's00007255'
p2218
S'459-57-4'
p2219
sS's00007252'
p2220
S'456-55-3'
p2221
sS's00007253'
p2222
S'455-32-3'
p2223
sS's00004879'
p2224
S'105311-65-7'
p2225
sS's00004878'
p2226
S'6606-30-0'
p2227
sS's00008125'
p2228
S'455-19-6'
p2229
sS's00008124'
p2230
S'434-45-7'
p2231
sS's00008127'
p2232
S'12079-65-1'
p2233
sS's00009392'
p2234
S'7440-71-3'
p2235
sS's00008121'
p2236
S'3240-11-7'
p2237
sS's00008120'
p2238
S'63724-95-8'
p2239
sS's00008123'
p2240
S'2561-17-3'
p2241
sS's00008122'
p2242
S'766-98-3'
p2243
sS's00005809'
p2244
S'78134-03-9'
p2245
sS's00001159'
p2246
S'69135-31-5'
p2247
sS's00004478'
p2248
S'30719-18-7'
p2249
sS's00005808'
p2250
S'75899-43-3'
p2251
sS's00003446'
p2252
S'3132-64-7'
p2253
sS's00003228'
p2254
S'431-63-0'
p2255
sS's00009833'
p2256
S'13768-94-0'
p2257
sS's00009834'
p2258
S'1305-62-0'
p2259
sS's00009835'
p2260
S'15230-48-5'
p2261
sS's00009837'
p2262
S'4109-96-0'
p2263
sS's00009548'
p2264
S'7791-12-0'
p2265
sS's00009549'
p2266
S'13943-41-4'
p2267
sS's00005044'
p2268
S'594-36-5'
p2269
sS's00003979'
p2270
S'627-44-1'
p2271
sS's00004164'
p2272
S'3437-95-4'
p2273
sS's00009540'
p2274
S'13931-84-5'
p2275
sS's00010543'
p2276
S'38784-58-6'
p2277
sS's00009542'
p2278
S'14989-32-3'
p2279
sS's00009543'
p2280
S'39594-91-7'
p2281
sS's00009544'
p2282
S'13966-57-9'
p2283
sS's00009545'
p2284
S'13931-79-8'
p2285
sS's00009546'
p2286
S'14989-33-4'
p2287
sS's00009547'
p2288
S'20190-06-1'
p2289
sS's00005438'
p2290
S'10230-26-9'
p2291
sS's00009592'
p2292
S'6909-54-2'
p2293
sS's00007217'
p2294
S'98-56-6'
p2295
sS's00005439'
p2296
S'33547-17-0'
p2297
sS's00005188'
p2298
S'17336-78-6'
p2299
sS's00005048'
p2300
S'753-89-9'
p2301
sS's00001716'
p2302
S'69209-20-7'
p2303
sS's00007616'
p2304
S'125294-43-1'
p2305
sS's00000520'
p2306
S'4017-64-5'
p2307
sS's00004163'
p2308
S'28523-86-6'
p2309
sS's00005018'
p2310
S'24770-21-6'
p2311
sS's00005019'
p2312
S'35200-02-3'
p2313
sS's00005016'
p2314
S'20996-62-7'
p2315
sS's00005017'
p2316
S'55613-72-4'
p2317
sS's00005014'
p2318
S'99268-84-5'
p2319
sS's00005015'
p2320
S'926-73-8'
p2321
sS's00000523'
p2322
S'1833-32-5'
p2323
sS's00006375'
p2324
S'583-53-9'
p2325
sS's00001025'
p2326
S'36375-61-8'
p2327
sS's00001024'
p2328
S'86596-78-3'
p2329
sS's00007205'
p2330
S'23138-94-5'
p2331
sS's00004019'
p2332
S'623-81-4'
p2333
sS's00001538'
p2334
S'84507-47-1'
p2335
sS's00003121'
p2336
S'58168-83-5'
p2337
sS's00000398'
p2338
S'70784-98-4'
p2339
sS's00000399'
p2340
S'107701-34-8'
p2341
sS's00009728'
p2342
S'15599-91-4'
p2343
sS's00009729'
p2344
S'90457-58-2'
p2345
sS's00009724'
p2346
S'10546-01-7'
p2347
sS's00009725'
p2348
S'13775-07-0'
p2349
sS's00009726'
p2350
S'19357-83-6'
p2351
sS's00009727'
p2352
S'7783-77-9'
p2353
sS's00009720'
p2354
S'69275-85-0'
p2355
sS's00009721'
p2356
S'23377-53-9'
p2357
sS's00009722'
p2358
S'69275-84-9'
p2359
sS's00009723'
p2360
S'7647-19-0'
p2361
sS's00004589'
p2362
S'13431-10-2'
p2363
sS's00005182'
p2364
S'6163-64-0'
p2365
sS's00005183'
p2366
S'4396-19-4'
p2367
sS's00009056'
p2368
S'373-53-5'
p2369
sS's00009057'
p2370
S'32360-83-1'
p2371
sS's00009054'
p2372
S'91379-14-5'
p2373
sS's00009052'
p2374
S'3744-29-4'
p2375
sS's00009419'
p2376
S'7791-25-5'
p2377
sS's00009050'
p2378
S'79825-54-0'
p2379
sS's00005329'
p2380
S'80997-33-7'
p2381
sS's00009058'
p2382
S'114282-87-0'
p2383
sS's00009059'
p2384
S'117068-13-0'
p2385
sS's00001449'
p2386
S'31599-79-8'
p2387
sS's00001448'
p2388
S'27323-18-8'
p2389
sS's00005700'
p2390
S'1858-56-6'
p2391
sS's00005701'
p2392
S'2994-71-0'
p2393
sS's00010159'
p2394
S'7681-82-5'
p2395
sS's00010158'
p2396
S'14696-81-2'
p2397
sS's00005704'
p2398
S'4520-08-5'
p2399
sS's00005705'
p2400
S'355-43-1'
p2401
sS's00001441'
p2402
S'132-65-0'
p2403
sS's00001440'
p2404
S'1013-23-6'
p2405
sS's00001443'
p2406
S'244-95-1'
p2407
sS's00001442'
p2408
S'92-85-3'
p2409
sS's00001445'
p2410
S'2051-60-7'
p2411
sS's00010150'
p2412
S'99260-54-5'
p2413
sS's00001447'
p2414
S'2051-62-9'
p2415
sS's00001446'
p2416
S'2051-61-8'
p2417
sS's00010799'
p2418
S'12032-52-9'
p2419
sS's00010798'
p2420
S'10034-94-3'
p2421
sS's00003641'
p2422
S'50879-06-6'
p2423
sS's00007746'
p2424
S'3322-93-8'
p2425
sS's00004491'
p2426
S'36811-14-0'
p2427
sS's00004490'
p2428
S'35262-23-8'
p2429
sS's00010791'
p2430
S'13776-74-4'
p2431
sS's00004492'
p2432
S'64808-28-2'
p2433
sS's00010797'
p2434
S'10034-94-3'
p2435
sS's00010796'
p2436
S'58790-40-3'
p2437
sS's00010795'
p2438
S'12032-35-8'
p2439
sS's00010794'
p2440
S'12032-35-8'
p2441
sS's00009611'
p2442
S'14333-26-7'
p2443
sS's00009612'
p2444
S'14104-45-1'
p2445
sS's00009613'
p2446
S'13587-16-1'
p2447
sS's00009614'
p2448
S'15123-00-9'
p2449
sS's00009616'
p2450
S'16355-69-4'
p2451
sS's00009617'
p2452
S'13759-76-7'
p2453
sS's00005386'
p2454
S'383-66-4'
p2455
sS's00005387'
p2456
S'400-38-4'
p2457
sS's00005384'
p2458
S'75121-40-3'
p2459
sS's00005385'
p2460
S'75121-41-4'
p2461
sS's00005383'
p2462
S'674-51-1'
p2463
sS's00005380'
p2464
S'96450-53-2'
p2465
sS's00005381'
p2466
S'97989-40-7'
p2467
sS's00002382'
p2468
S'23724-60-9'
p2469
sS's00002381'
p2470
S'153143-06-7'
p2471
sS's00002387'
p2472
S'26456-53-1'
p2473
sS's00003359'
p2474
S'2088-35-9'
p2475
sS's00002385'
p2476
S'492470-50-5'
p2477
sS's00002388'
p2478
S'7049-95-8'
p2479
sS's00007214'
p2480
S'6952-59-6'
p2481
sS's00010330'
p2482
S'14553-36-7'
p2483
sS's00002899'
p2484
S'17321-47-0'
p2485
sS's00000527'
p2486
S'16668-83-0'
p2487
sS's00002894'
p2488
S'1449-64-5'
p2489
sS's00002893'
p2490
S'42087-66-1'
p2491
sS's00004728'
p2492
S'558-17-8'
p2493
sS's00004727'
p2494
S'542-69-8'
p2495
sS's00004726'
p2496
S'513-48-4'
p2497
sS's00004725'
p2498
S'513-38-2'
p2499
sS's00004724'
p2500
S'754-25-6'
p2501
sS's00004723'
p2502
S'29149-32-4'
p2503
sS's00004722'
p2504
S'646-55-9'
p2505
sS's00004721'
p2506
S'2366-52-1'
p2507
sS's00004720'
p2508
S'359-00-2'
p2509
sS's00009771'
p2510
S'13966-74-0'
p2511
sS's00002949'
p2512
S'354-14-3'
p2513
sS's00002948'
p2514
S'354-11-0'
p2515
sS's00002945'
p2516
S'76-03-9'
p2517
sS's00009711'
p2518
S'27245-05-2'
p2519
sS's00002947'
p2520
S'23425-39-0'
p2521
sS's00002946'
p2522
S'23273-90-7'
p2523
sS's00002940'
p2524
S'354-21-2'
p2525
sS's00002943'
p2526
S'75-87-6'
p2527
sS's00003220'
p2528
S'64724-05-6'
p2529
sS's00003879'
p2530
S'159562-45-5'
p2531
sS's00002761'
p2532
S'62-55-5'
p2533
sS's00002760'
p2534
S'26185-93-3'
p2535
sS's00001813'
p2536
S'14284-89-0'
p2537
sS's00002099'
p2538
S'1048-05-1'
p2539
sS's00005528'
p2540
S'73059-87-7'
p2541
sS's00005529'
p2542
S'285-75-6'
p2543
sS's00009416'
p2544
S'7791-21-1'
p2545
sS's00000817'
p2546
S'6889-73-2'
p2547
sS's00000816'
p2548
S'825-55-8'
p2549
sS's00000819'
p2550
S'3815-31-4'
p2551
sS's00000818'
p2552
S'78646-50-1'
p2553
sS's00009950'
p2554
S'20424-84-4'
p2555
sS's00005526'
p2556
S'1072-72-6'
p2557
sS's00005527'
p2558
S'65581-04-6'
p2559
sS's00005551'
p2560
S'29921-57-1'
p2561
sS's00010374'
p2562
S'12185-10-3'
p2563
sS's00010377'
p2564
S'7440-13-3'
p2565
sS's00010376'
p2566
S'12509-41-0'
p2567
sS's00010371'
p2568
S'7723-14-0'
p2569
sS's00010370'
p2570
S'7440-04-2'
p2571
sS's00010373'
p2572
S'55030-78-9'
p2573
sS's00010372'
p2574
S'12185-09-0'
p2575
sS's00009413'
p2576
S'86170-90-3'
p2577
sS's00009895'
p2578
S'13465-07-1'
p2579
sS's00010379'
p2580
S'12596-92-8'
p2581
sS's00009228'
p2582
S'93895-87-5'
p2583
sS's00008894'
p2584
S'463-71-8'
p2585
sS's00002912'
p2586
S'151-67-7'
p2587
sS's00003189'
p2588
S'5314-85-2'
p2589
sS's00008897'
p2590
S'3711-49-7'
p2591
sS's00002913'
p2592
S'354-06-3'
p2593
sS's00002910'
p2594
S'75-95-6'
p2595
sS's00009438'
p2596
S'7646-85-7'
p2597
sS's00002169'
p2598
S'76-14-2'
p2599
sS's00002168'
p2600
S'134469-96-8'
p2601
sS's00002163'
p2602
S'354-24-5'
p2603
sS's00002260'
p2604
S'359-40-0'
p2605
sS's00002161'
p2606
S'79-35-6'
p2607
sS's00002167'
p2608
S'147703-37-5'
p2609
sS's00002166'
p2610
S'38000-89-4'
p2611
sS's00002165'
p2612
S'32197-21-0'
p2613
sS's00002261'
p2614
S'81127-98-2'
p2615
sS's00002369'
p2616
S'2813-62-9'
p2617
sS's00009590'
p2618
S'66511-78-2'
p2619
sS's00010457'
p2620
S'1344-28-1'
p2621
sS's00002262'
p2622
S'692-74-0'
p2623
sS's00002361'
p2624
S'107-14-2'
p2625
sS's00002360'
p2626
S'138689-24-4'
p2627
sS's00002363'
p2628
S'51303-98-1'
p2629
sS's00002362'
p2630
S'41970-14-3'
p2631
sS's00002365'
p2632
S'157171-29-4'
p2633
sS's00002364'
p2634
S'67708-74-1'
p2635
sS's00002367'
p2636
S'65881-80-3'
p2637
sS's00010209'
p2638
S'63172-13-4'
p2639
sS's00010208'
p2640
S'14452-57-4'
p2641
sS's00002814'
p2642
S'106693-86-1'
p2643
sS's00005242'
p2644
S'626-60-8'
p2645
sS's00010201'
p2646
S'12136-56-0'
p2647
sS's00010200'
p2648
S'12142-77-7'
p2649
sS's00010203'
p2650
S'7439-94-3'
p2651
sS's00010202'
p2652
S'12031-70-8'
p2653
sS's00010205'
p2654
S'7439-95-4'
p2655
sS's00010204'
p2656
S'12032-02-9'
p2657
sS's00010207'
p2658
S'1309-48-4'
p2659
sS's00010206'
p2660
S'29904-79-8'
p2661
sS's00010803'
p2662
S'1317-35-7'
p2663
sS's00010802'
p2664
S'1317-34-6'
p2665
sS's00010801'
p2666
S'1313-13-9'
p2667
sS's00010800'
p2668
S'12032-52-9'
p2669
sS's00010807'
p2670
S'18820-29-6'
p2671
sS's00010806'
p2672
S'18820-29-6'
p2673
sS's00010805'
p2674
S'12033-08-8'
p2675
sS's00010804'
p2676
S'1317-35-7'
p2677
sS's00006398'
p2678
S'23907-73-5'
p2679
sS's00005247'
p2680
S'372-47-4'
p2681
sS's00010809'
p2682
S'12011-97-1'
p2683
sS's00010808'
p2684
S'12125-23-4'
p2685
sS's00003418'
p2686
S'20628-59-5'
p2687
sS's00009022'
p2688
S'312962-30-4'
p2689
sS's00006673'
p2690
S'30353-57-2'
p2691
sS's00005245'
p2692
S'1513-88-8'
p2693
sS's00006672'
p2694
S'74796-12-6'
p2695
sS's00000079'
p2696
S'7440-42-8'
p2697
sS's00006671'
p2698
S'14225-24-2'
p2699
sS's00006670'
p2700
S'14225-23-1'
p2701
sS's00009789'
p2702
S'7440-54-2'
p2703
sS's00008324'
p2704
S'113962-85-9'
p2705
sS's00008839'
p2706
S'350-40-3'
p2707
sS's00008838'
p2708
S'107701-36-0'
p2709
sS's00008837'
p2710
S'107701-35-9'
p2711
sS's00008836'
p2712
S'87154-98-1'
p2713
sS's00008835'
p2714
S'7335-27-5'
p2715
sS's00008834'
p2716
S'1128-76-3'
p2717
sS's00001810'
p2718
S'13963-57-0'
p2719
sS's00008832'
p2720
S'1798-84-1'
p2721
sS's00004710'
p2722
S'38455-12-8'
p2723
sS's00008830'
p2724
S'1712-70-5'
p2725
sS's00002461'
p2726
S'23273-86-1'
p2727
sS's00005694'
p2728
S'83168-66-5'
p2729
sS's00006734'
p2730
S'89027-60-1'
p2731
sS's00000788'
p2732
S'2430-34-4'
p2733
sS's00006732'
p2734
S'638-02-8'
p2735
sS's00006733'
p2736
S'872-55-9'
p2737
sS's00006730'
p2738
S'78550-67-1'
p2739
sS's00006731'
p2740
S'632-15-5'
p2741
sS's00009170'
p2742
S'22223-61-6'
p2743
sS's00004148'
p2744
S'53006-34-1'
p2745
sS's00004822'
p2746
S'375-22-4'
p2747
sS's00008950'
p2748
S'73142-81-1'
p2749
sS's00008951'
p2750
S'558-20-3'
p2751
sS's00006780'
p2752
S'13939-06-5'
p2753
sS's00008954'
p2754
S'811-98-3'
p2755
sS's00006405'
p2756
S'65064-78-0'
p2757
sS's00008956'
p2758
S'500777-48-0'
p2759
sS's00009539'
p2760
S'17167-55-4'
p2761
sS's00007465'
p2762
S'4346-64-9'
p2763
sS's00007464'
p2764
S'137-06-4'
p2765
sS's00007466'
p2766
S'37773-21-0'
p2767
sS's00007461'
p2768
S'100-68-5'
p2769
sS's00007460'
p2770
S'100-53-8'
p2771
sS's00007463'
p2772
S'108-40-7'
p2773
sS's00007462'
p2774
S'106-45-6'
p2775
sS's00003386'
p2776
S'430-63-7'
p2777
sS's00003387'
p2778
S'558-29-2'
p2779
sS's00003382'
p2780
S'15068-78-7'
p2781
sS's00004317'
p2782
S'53220-07-8'
p2783
sS's00003312'
p2784
S'73551-03-8'
p2785
sS's00003389'
p2786
S'453-14-5'
p2787
sS's00004569'
p2788
S'115523-06-3'
p2789
sS's00003569'
p2790
S'74590-03-7'
p2791
sS's00004568'
p2792
S'70628-12-5'
p2793
sS's00003564'
p2794
S'142-28-9'
p2795
sS's00003565'
p2796
S'594-20-7'
p2797
sS's00003566'
p2798
S'34862-07-2'
p2799
sS's00003560'
p2800
S'39841-31-1'
p2801
sS's00003561'
p2802
S'41895-36-7'
p2803
sS's00003562'
p2804
S'78-87-5'
p2805
sS's00003563'
p2806
S'78-99-9'
p2807
sS's00000147'
p2808
S'25601-01-8'
p2809
sS's00000146'
p2810
S'507-16-4'
p2811
sS's00003368'
p2812
S'425-87-6'
p2813
sS's00003369'
p2814
S'542-76-7'
p2815
sS's00000143'
p2816
S'12431-56-0'
p2817
sS's00000142'
p2818
S'7789-48-2'
p2819
sS's00000141'
p2820
S'12380-84-6'
p2821
sS's00000140'
p2822
S'7789-47-1'
p2823
sS's00003362'
p2824
S'513-88-2'
p2825
sS's00003363'
p2826
S'6565-20-4'
p2827
sS's00003360'
p2828
S'10061-01-5'
p2829
sS's00003361'
p2830
S'10061-02-6'
p2831
sS's00003366'
p2832
S'460-35-5'
p2833
sS's00003364'
p2834
S'812-03-3'
p2835
sS's00003365'
p2836
S'1070-78-6'
p2837
sS's00004868'
p2838
S'73646-90-9'
p2839
sS's00004869'
p2840
S'6129-04-0'
p2841
sS's00008320'
p2842
S'620-19-9'
p2843
sS's00004256'
p2844
S'1524-26-1'
p2845
sS's00004860'
p2846
S'7291-22-7'
p2847
sS's00004861'
p2848
S'2102-16-1'
p2849
sS's00004863'
p2850
S'6611-46-7'
p2851
sS's00004864'
p2852
S'83891-08-1'
p2853
sS's00010449'
p2854
S'7440-67-7'
p2855
sS's00004866'
p2856
S'376-77-2'
p2857
sS's00004867'
p2858
S'73646-89-6'
p2859
sS's00007261'
p2860
S'38548-46-8'
p2861
sS's00007260'
p2862
S'619-58-9'
p2863
sS's00006785'
p2864
S'2251-50-5'
p2865
sS's00003310'
p2866
S'1885-48-9'
p2867
sS's00003858'
p2868
S'54041-00-8'
p2869
sS's00003859'
p2870
S'1645-75-6'
p2871
sS's00004464'
p2872
S'17639-93-9'
p2873
sS's00004465'
p2874
S'51486-48-7'
p2875
sS's00004466'
p2876
S'1560-59-4'
p2877
sS's00004467'
p2878
S'60053-18-1'
p2879
sS's00001636'
p2880
S'537-64-4'
p2881
sS's00004461'
p2882
S'1951-12-8'
p2883
sS's00004462'
p2884
S'4170-24-5'
p2885
sS's00004463'
p2886
S'6001-87-2'
p2887
sS's00004250'
p2888
S'381-61-3'
p2889
sS's00001148'
p2890
S'12093-81-1'
p2891
sS's00001149'
p2892
S'12129-67-8'
p2893
sS's00008138'
p2894
S'140-53-4'
p2895
sS's00008139'
p2896
S'1529-41-5'
p2897
sS's00004262'
p2898
S'406-58-6'
p2899
sS's00004263'
p2900
S'37826-35-0'
p2901
sS's00004260'
p2902
S'383-63-1'
p2903
sS's00009849'
p2904
S'35427-70-4'
p2905
sS's00001087'
p2906
S'3268-87-9'
p2907
sS's00003855'
p2908
S'431-71-0'
p2909
sS's00009845'
p2910
S'69723-93-9'
p2911
sS's00009847'
p2912
S'13824-36-7'
p2913
sS's00009846'
p2914
S'13587-49-0'
p2915
sS's00009841'
p2916
S'33945-66-3'
p2917
sS's00007290'
p2918
S'95-75-0'
p2919
sS's00009843'
p2920
S'10599-90-3'
p2921
sS's00003960'
p2922
S'4556-26-7'
p2923
sS's00003961'
p2924
S'4556-27-8'
p2925
sS's00003962'
p2926
S'423-39-2'
p2927
sS's00003963'
p2928
S'4459-18-1'
p2929
sS's00003964'
p2930
S'354-93-8'
p2931
sS's00003157'
p2932
S'80610-15-7'
p2933
sS's00003966'
p2934
S'53759-15-2'
p2935
sS's00003967'
p2936
S'14911-55-8'
p2937
sS's00003968'
p2938
S'54806-22-3'
p2939
sS's00003969'
p2940
S'15281-98-8'
p2941
sS's00009537'
p2942
S'53169-26-9'
p2943
sS's00006388'
p2944
S'348-51-6'
p2945
sS's00009531'
p2946
S'10049-04-4'
p2947
sS's00010572'
p2948
S'591768-87-5'
p2949
sS's00009533'
p2950
S'32582-12-0'
p2951
sS's00007297'
p2952
S'95080-04-9'
p2953
sS's00006387'
p2954
S'120-83-2'
p2955
sS's00009091'
p2956
S'79435-76-0'
p2957
sS's00004259'
p2958
S'381-88-4'
p2959
sS's00006386'
p2960
S'87-65-0'
p2961
sS's00010860'
p2962
S'7726-95-6'
p2963
sS's00007295'
p2964
S'15717-17-6'
p2965
sS's00005023'
p2966
S'53971-47-4'
p2967
sS's00005022'
p2968
S'20582-83-6'
p2969
sS's00005021'
p2970
S'5296-62-8'
p2971
sS's00005020'
p2972
S'1613-51-0'
p2973
sS's00005026'
p2974
S'2372-99-8'
p2975
sS's00005025'
p2976
S'81193-96-6'
p2977
sS's00005024'
p2978
S'69519-01-3'
p2979
sS's00010832'
p2980
S'12137-12-1'
p2981
sS's00009621'
p2982
S'13587-55-8'
p2983
sS's00003916'
p2984
S'3934-26-7'
p2985
sS's00001523'
p2986
S'34807-89-1'
p2987
sS's00008136'
p2988
S'59346-70-2'
p2989
sS's00009620'
p2990
S'13587-54-7'
p2991
sS's00000037'
p2992
S'13569-23-8'
p2993
sS's00000036'
p2994
S'13595-82-9'
p2995
sS's00000035'
p2996
S'13596-11-7'
p2997
sS's00010831'
p2998
S'12035-72-2'
p2999
sS's00000033'
p3000
S'7446-70-0'
p3001
sS's00009151'
p3002
S'129064-96-6'
p3003
sS's00000031'
p3004
S'13595-81-8'
p3005
sS's00000030'
p3006
S'7727-15-3'
p3007
sS's00009283'
p3008
S'35645-04-6'
p3009
sS's00009282'
p3010
S'4960-87-6'
p3011
sS's00009281'
p3012
S'10457-12-2'
p3013
sS's00009150'
p3014
S'74-88-4'
p3015
sS's00009287'
p3016
S'676-80-2'
p3017
sS's00003913'
p3018
S'2418-21-5'
p3019
sS's00009285'
p3020
S'79825-55-1'
p3021
sS's00009289'
p3022
S'1849-29-2'
p3023
sS's00009742'
p3024
S'13873-84-2'
p3025
sS's00009624'
p3026
S'13780-23-9'
p3027
sS's00009441'
p3028
S'25251-05-2'
p3029
sS's00009440'
p3030
S'11093-65-5'
p3031
sS's00009443'
p3032
S'13569-55-6'
p3033
sS's00009442'
p3034
S'13450-90-3'
p3035
sS's00009445'
p3036
S'10025-82-8'
p3037
sS's00009444'
p3038
S'13465-85-5'
p3039
sS's00009999'
p3040
S'12628-08-9'
p3041
sS's00009446'
p3042
S'10099-58-8'
p3043
sS's00009997'
p3044
S'13967-22-1'
p3045
sS's00009448'
p3046
S'10099-66-8'
p3047
sS's00009995'
p3048
S'19624-22-7'
p3049
sS's00009993'
p3050
S'14691-44-2'
p3051
sS's00009992'
p3052
S'66455-86-5'
p3053
sS's00009269'
p3054
S'594-04-7'
p3055
sS's00009268'
p3056
S'75-43-4'
p3057
sS's00009737'
p3058
S'17029-21-9'
p3059
sS's00005284'
p3060
S'367-57-7'
p3061
sS's00005283'
p3062
S'85984-39-0'
p3063
sS's00005281'
p3064
S'34729-63-0'
p3065
sS's00005280'
p3066
S'21129-16-8'
p3067
sS's00002426'
p3068
S'26223-16-5'
p3069
sS's00009260'
p3070
S'75-25-2'
p3071
sS's00009262'
p3072
S'75-27-4'
p3073
sS's00009265'
p3074
S'7726-11-6'
p3075
sS's00009264'
p3076
S'1511-62-2'
p3077
sS's00009267'
p3078
S'3474-12-2'
p3079
sS's00009266'
p3080
S'2108-20-5'
p3081
sS's00004139'
p3082
S'872-31-1'
p3083
sS's00004648'
p3084
S'54697-52-8'
p3085
sS's00004649'
p3086
S'82810-48-8'
p3087
sS's00010148'
p3088
S'13813-22-4'
p3089
sS's00010149'
p3090
S'13813-24-6'
p3091
sS's00010146'
p3092
S'10294-70-9'
p3093
sS's00004645'
p3094
S'126-33-0'
p3095
sS's00004646'
p3096
S'14919-12-1'
p3097
sS's00001451'
p3098
S'324-74-3'
p3099
sS's00004147'
p3100
S'96-43-5'
p3101
sS's00010143'
p3102
S'12401-65-9'
p3103
sS's00010140'
p3104
S'7553-56-2'
p3105
sS's00010141'
p3106
S'37279-36-0'
p3107
sS's00008263'
p3108
S'698-53-3'
p3109
sS's00010788'
p3110
S'13776-74-4'
p3111
sS's00010789'
p3112
S'13776-74-4'
p3113
sS's00000076'
p3114
S'12429-33-3'
p3115
sS's00010784'
p3116
S'12032-36-9'
p3117
sS's00010785'
p3118
S'12032-36-9'
p3119
sS's00010786'
p3120
S'748-88-9'
p3121
sS's00010787'
p3122
S'748-88-9'
p3123
sS's00010780'
p3124
S'14332-53-7'
p3125
sS's00010781'
p3126
S'14332-62-8'
p3127
sS's00010782'
p3128
S'60195-15-5'
p3129
sS's00010783'
p3130
S'60172-61-4'
p3131
sS's00009197'
p3132
S'422506-69-2'
p3133
sS's00009196'
p3134
S'422506-68-1'
p3135
sS's00009667'
p3136
S'7783-46-2'
p3137
sS's00009194'
p3138
S'100993-96-2'
p3139
sS's00009661'
p3140
S'2699-79-8'
p3141
sS's00009660'
p3142
S'7783-44-0'
p3143
sS's00009663'
p3144
S'13536-85-1'
p3145
sS's00009662'
p3146
S'14118-73-1'
p3147
sS's00002043'
p3148
S'37274-10-5'
p3149
sS's00008033'
p3150
S'24470-76-6'
p3151
sS's00009669'
p3152
S'13814-25-0'
p3153
sS's00009668'
p3154
S'18820-56-9'
p3155
sS's00009199'
p3156
S'437762-35-1'
p3157
sS's00009198'
p3158
S'422506-70-5'
p3159
sS's00002394'
p3160
S'1630-78-0'
p3161
sS's00002395'
p3162
S'1691-13-0'
p3163
sS's00002396'
p3164
S'54882-20-1'
p3165
sS's00002397'
p3166
S'95054-92-5'
p3167
sS's00002390'
p3168
S'86129-81-9'
p3169
sS's00008031'
p3170
S'6207-41-6'
p3171
sS's00002392'
p3172
S'75-38-7'
p3173
sS's00002393'
p3174
S'1630-77-9'
p3175
sS's00002398'
p3176
S'430-69-3'
p3177
sS's00007231'
p3178
S'3354-42-5'
p3179
sS's00009405'
p3180
S'10060-11-4'
p3181
sS's00002556'
p3182
S'556-64-9'
p3183
sS's00002557'
p3184
S'54524-31-1'
p3185
sS's00002886'
p3186
S'868-85-9'
p3187
sS's00002555'
p3188
S'556-61-6'
p3189
sS's00004145'
p3190
S'400-43-1'
p3191
sS's00004865'
p3192
S'35468-44-1'
p3193
sS's00007363'
p3194
S'620-05-3'
p3195
sS's00006980'
p3196
S'114646-19-4'
p3197
sS's00000995'
p3198
S'7252-86-0'
p3199
sS's00000996'
p3200
S'7417-73-4'
p3201
sS's00000997'
p3202
S'7439-10-3'
p3203
sS's00002958'
p3204
S'147703-34-2'
p3205
sS's00002959'
p3206
S'88099-83-6'
p3207
sS's00009063'
p3208
S'119437-61-5'
p3209
sS's00002957'
p3210
S'147703-30-8'
p3211
sS's00009061'
p3212
S'16519-98-5'
p3213
sS's00009060'
p3214
S'119437-63-7'
p3215
sS's00002952'
p3216
S'76-01-7'
p3217
sS's00002953'
p3218
S'359-10-4'
p3219
sS's00002603'
p3220
S'762-56-1'
p3221
sS's00000992'
p3222
S'49833-45-6'
p3223
sS's00003542'
p3224
S'279-53-8'
p3225
sS's00002601'
p3226
S'762-50-5'
p3227
sS's00000855'
p3228
S'32313-84-1'
p3229
sS's00001518'
p3230
S'1486-28-8'
p3231
sS's00002772'
p3232
S'4853-79-6'
p3233
sS's00000854'
p3234
S'32313-83-0'
p3235
sS's00002778'
p3236
S'6569-82-0'
p3237
sS's00002779'
p3238
S'14836-22-7'
p3239
sS's00000802'
p3240
S'12125-72-3'
p3241
sS's00000803'
p3242
S'12116-44-8'
p3243
sS's00000801'
p3244
S'12083-24-8'
p3245
sS's00000804'
p3246
S'42463-82-1'
p3247
sS's00000805'
p3248
S'12125-77-8'
p3249
sS's00009922'
p3250
S'13587-51-4'
p3251
sS's00009406'
p3252
S'7487-94-7'
p3253
sS's00008767'
p3254
S'137007-13-7'
p3255
sS's00006446'
p3256
S'591-20-8'
p3257
sS's00000999'
p3258
S'75503-14-9'
p3259
sS's00010366'
p3260
S'12036-00-9'
p3261
sS's00010367'
p3262
S'25578-79-4'
p3263
sS's00010364'
p3264
S'12035-98-2'
p3265
sS's00010365'
p3266
S'12035-99-3'
p3267
sS's00010362'
p3268
S'12281-29-7'
p3269
sS's00010363'
p3270
S'12035-97-1'
p3271
sS's00010360'
p3272
S'12035-93-7'
p3273
sS's00010361'
p3274
S'12137-20-1'
p3275
sS's00005697'
p3276
S'89031-88-9'
p3277
sS's00003120'
p3278
S'14096-82-3'
p3279
sS's00004031'
p3280
S'6628-18-8'
p3281
sS's00010368'
p3282
S'1314-13-2'
p3283
sS's00010369'
p3284
S'12036-01-0'
p3285
sS's00008214'
p3286
S'74725-77-2'
p3287
sS's00003122'
p3288
S'81714-33-2'
p3289
sS's00005038'
p3290
S'107-82-4'
p3291
sS's00006335'
p3292
S'95-94-3'
p3293
sS's00002498'
p3294
S'125611-13-4'
p3295
sS's00005039'
p3296
S'110-53-2'
p3297
sS's00005328'
p3298
S'77613-68-4'
p3299
sS's00002178'
p3300
S'359-29-5'
p3301
sS's00002174'
p3302
S'4591-28-0'
p3303
sS's00002175'
p3304
S'79-37-8'
p3305
sS's00002177'
p3306
S'90177-25-6'
p3307
sS's00002170'
p3308
S'374-07-2'
p3309
sS's00002849'
p3310
S'75-08-1'
p3311
sS's00008453'
p3312
S'2745-54-2'
p3313
sS's00000749'
p3314
S'2916-70-3'
p3315
sS's00002379'
p3316
S'61307-92-4'
p3317
sS's00004403'
p3318
S'3232-39-1'
p3319
sS's00006448'
p3320
S'608-31-1'
p3321
sS's00002370'
p3322
S'6755-54-0'
p3323
sS's00001120'
p3324
S'882-33-7'
p3325
sS's00002375'
p3326
S'63043-58-3'
p3327
sS's00000936'
p3328
S'33274-45-2'
p3329
sS's00010218'
p3330
S'18868-43-4'
p3331
sS's00010219'
p3332
S'1313-27-5'
p3333
sS's00010212'
p3334
S'1344-43-0'
p3335
sS's00010213'
p3336
S'7439-98-7'
p3337
sS's00010210'
p3338
S'7439-96-5'
p3339
sS's00010211'
p3340
S'12596-53-1'
p3341
sS's00010216'
p3342
S'12163-83-6'
p3343
sS's00010217'
p3344
S'12058-07-0'
p3345
sS's00010214'
p3346
S'12596-54-2'
p3347
sS's00010215'
p3348
S'12412-19-0'
p3349
sS's00006417'
p3350
S'624-38-4'
p3351
sS's00006416'
p3352
S'32799-25-0'
p3353
sS's00003175'
p3354
S'32038-83-8'
p3355
sS's00003174'
p3356
S'432-03-1'
p3357
sS's00003173'
p3358
S'76-19-7'
p3359
sS's00003172'
p3360
S'156517-27-0'
p3361
sS's00006411'
p3362
S'3796-24-5'
p3363
sS's00003170'
p3364
S'154393-30-3'
p3365
sS's00010818'
p3366
S'7790-98-9'
p3367
sS's00003965'
p3368
S'375-54-2'
p3369
sS's00003178'
p3370
S'52491-41-5'
p3371
sS's00006093'
p3372
S'69380-61-6'
p3373
sS's00006092'
p3374
S'69380-60-5'
p3375
sS's00006091'
p3376
S'69380-59-2'
p3377
sS's00009402'
p3378
S'29871-62-3'
p3379
sS's00006097'
p3380
S'15732-69-1'
p3381
sS's00006096'
p3382
S'38348-31-1'
p3383
sS's00008826'
p3384
S'4392-24-9'
p3385
sS's00001990'
p3386
S'5848-64-6'
p3387
sS's00008828'
p3388
S'24398-88-7'
p3389
sS's00008829'
p3390
S'90653-55-7'
p3391
sS's00009538'
p3392
S'7791-08-4'
p3393
sS's00008855'
p3394
S'40806-93-7'
p3395
sS's00003304'
p3396
S'460-73-1'
p3397
sS's00006253'
p3398
S'111-47-7'
p3399
sS's00006255'
p3400
S'629-19-6'
p3401
sS's00006254'
p3402
S'625-80-9'
p3403
sS's00006256'
p3404
S'4253-89-8'
p3405
sS's00003306'
p3406
S'1814-88-6'
p3407
sS's00006079'
p3408
S'999-90-6'
p3409
sS's00006078'
p3410
S'928-47-2'
p3411
sS's00003307'
p3412
S'24270-66-4'
p3413
sS's00003779'
p3414
S'1618-26-4'
p3415
sS's00003778'
p3416
S'624-89-5'
p3417
sS's00009295'
p3418
S'917-71-5'
p3419
sS's00003775'
p3420
S'82065-01-8'
p3421
sS's00003300'
p3422
S'431-47-0'
p3423
sS's00003777'
p3424
S'107-03-9'
p3425
sS's00003776'
p3426
S'75-33-2'
p3427
sS's00006075'
p3428
S'80352-66-5'
p3429
sS's00003301'
p3430
S'32042-38-9'
p3431
sS's00006988'
p3432
S'2431-24-5'
p3433
sS's00008929'
p3434
S'28959-91-3'
p3435
sS's00008928'
p3436
S'22117-86-8'
p3437
sS's00008925'
p3438
S'13776-70-0'
p3439
sS's00008927'
p3440
S'89554-88-1'
p3441
sS's00003303'
p3442
S'431-31-2'
p3443
sS's00008921'
p3444
S'58168-84-6'
p3445
sS's00008920'
p3446
S'115408-74-7'
p3447
sS's00008923'
p3448
S'55979-21-0'
p3449
sS's00008922'
p3450
S'133071-35-9'
p3451
sS's00000078'
p3452
S'12256-53-0'
p3453
sS's00009966'
p3454
S'13445-50-6'
p3455
sS's00003977'
p3456
S'107-99-3'
p3457
sS's00007474'
p3458
S'74725-76-1'
p3459
sS's00007472'
p3460
S'7721-70-2'
p3461
sS's00007473'
p3462
S'81569-04-2'
p3463
sS's00007470'
p3464
S'127254-73-3'
p3465
sS's00007471'
p3466
S'31991-53-4'
p3467
sS's00007990'
p3468
S'628-61-5'
p3469
sS's00009622'
p3470
S'63785-55-7'
p3471
sS's00000158'
p3472
S'13536-79-3'
p3473
sS's00000159'
p3474
S'7789-59-5'
p3475
sS's00007614'
p3476
S'22426-23-9'
p3477
sS's00003295'
p3478
S'563-85-9'
p3479
sS's00007612'
p3480
S'599-70-2'
p3481
sS's00007613'
p3482
S'14779-29-4'
p3483
sS's00003597'
p3484
S'33251-51-3'
p3485
sS's00003596'
p3486
S'96-45-7'
p3487
sS's00000150'
p3488
S'22987-45-7'
p3489
sS's00000151'
p3490
S'14877-32-8'
p3491
sS's00000152'
p3492
S'10031-24-0'
p3493
sS's00000153'
p3494
S'10476-81-0'
p3495
sS's00000154'
p3496
S'16032-52-3'
p3497
sS's00000155'
p3498
S'67336-18-9'
p3499
sS's00000156'
p3500
S'13450-88-9'
p3501
sS's00000157'
p3502
S'13465-09-3'
p3503
sS's00003919'
p3504
S'2892-63-9'
p3505
sS's00000484'
p3506
S'14024-17-0'
p3507
sS's00000485'
p3508
S'14024-58-9'
p3509
sS's00000482'
p3510
S'13395-16-9'
p3511
sS's00000483'
p3512
S'74910-62-6'
p3513
sS's00000480'
p3514
S'2873-89-4'
p3515
sS's00000481'
p3516
S'14024-48-7'
p3517
sS's00003357'
p3518
S'563-57-5'
p3519
sS's00003356'
p3520
S'542-75-6'
p3521
sS's00003355'
p3522
S'78-88-6'
p3523
sS's00003353'
p3524
S'40905-10-0'
p3525
sS's00003352'
p3526
S'34853-20-8'
p3527
sS's00003351'
p3528
S'33272-69-4'
p3529
sS's00000489'
p3530
S'3264-82-2'
p3531
sS's00009452'
p3532
S'7727-18-6'
p3533
sS's00004818'
p3534
S'13275-39-3'
p3535
sS's00009453'
p3536
S'7719-12-2'
p3537
sS's00004817'
p3538
S'76913-34-3'
p3539
sS's00008728'
p3540
S'759-94-4'
p3541
sS's00004811'
p3542
S'31452-24-1'
p3543
sS's00004810'
p3544
S'16812-19-4'
p3545
sS's00004813'
p3546
S'16842-03-8'
p3547
sS's00004812'
p3548
S'6089-44-7'
p3549
sS's00006679'
p3550
S'79517-52-5'
p3551
sS's00006678'
p3552
S'79517-51-4'
p3553
sS's00003289'
p3554
S'21300-54-9'
p3555
sS's00003288'
p3556
S'7379-29-5'
p3557
sS's00000553'
p3558
S'1638-86-4'
p3559
sS's00003285'
p3560
S'77310-78-2'
p3561
sS's00003284'
p3562
S'73341-19-2'
p3563
sS's00003287'
p3564
S'1517-51-7'
p3565
sS's00003286'
p3566
S'1517-50-6'
p3567
sS's00006677'
p3568
S'29771-79-7'
p3569
sS's00006676'
p3570
S'122519-95-3'
p3571
sS's00003283'
p3572
S'19491-25-9'
p3573
sS's00003282'
p3574
S'7299-37-8'
p3575
sS's00007103'
p3576
S'5399-19-9'
p3577
sS's00000737'
p3578
S'17906-71-7'
p3579
sS's00001609'
p3580
S'4497-72-7'
p3581
sS's00004257'
p3582
S'31450-05-2'
p3583
sS's00008451'
p3584
S'104-52-9'
p3585
sS's00007298'
p3586
S'2194-09-4'
p3587
sS's00007299'
p3588
S'2599-73-7'
p3589
sS's00004253'
p3590
S'381-74-8'
p3591
sS's00004252'
p3592
S'374-00-5'
p3593
sS's00009699'
p3594
S'14459-59-7'
p3595
sS's00009989'
p3596
S'81671-63-8'
p3597
sS's00007292'
p3598
S'619-56-7'
p3599
sS's00007293'
p3600
S'82608-88-6'
p3601
sS's00009854'
p3602
S'78715-95-4'
p3603
sS's00009855'
p3604
S'1309-42-8'
p3605
sS's00009852'
p3606
S'24968-55-6'
p3607
sS's00009853'
p3608
S'13760-02-6'
p3609
sS's00007294'
p3610
S'82608-90-0'
p3611
sS's00009851'
p3612
S'18624-44-7'
p3613
sS's00003915'
p3614
S'3832-15-3'
p3615
sS's00003914'
p3616
S'2418-22-6'
p3617
sS's00003917'
p3618
S'355-20-4'
p3619
sS's00008100'
p3620
S'30834-33-4'
p3621
sS's00010564'
p3622
S'505-60-2'
p3623
sS's00009528'
p3624
S'7647-14-5'
p3625
sS's00009529'
p3626
S'13931-83-4'
p3627
sS's00009526'
p3628
S'14545-72-3'
p3629
sS's00009527'
p3630
S'15605-28-4'
p3631
sS's00009524'
p3632
S'13444-90-1'
p3633
sS's00009525'
p3634
S'65283-98-9'
p3635
sS's00009522'
p3636
S'13973-88-1'
p3637
sS's00009523'
p3638
S'2696-92-6'
p3639
sS's00010533'
p3640
S'6111-63-3'
p3641
sS's00004920'
p3642
S'26657-19-2'
p3643
sS's00001737'
p3644
S'4485-03-4'
p3645
sS's00001736'
p3646
S'716-53-0'
p3647
sS's00001735'
p3648
S'1564-64-3'
p3649
sS's00008030'
p3650
S'29146-24-5'
p3651
sS's00001738'
p3652
S'529-85-1'
p3653
sS's00008039'
p3654
S'15199-21-0'
p3655
sS's00002049'
p3656
S'34895-45-9'
p3657
sS's00005037'
p3658
S'107-81-3'
p3659
sS's00004033'
p3660
S'627-53-2'
p3661
sS's00004032'
p3662
S'77205-52-8'
p3663
sS's00008215'
p3664
S'38548-47-9'
p3665
sS's00001046'
p3666
S'1134-23-2'
p3667
sS's00008213'
p3668
S'4840-92-0'
p3669
sS's00008212'
p3670
S'2351-50-0'
p3671
sS's00008211'
p3672
S'405-79-8'
p3673
sS's00008210'
p3674
S'405-50-5'
p3675
sS's00000020'
p3676
S'7783-90-6'
p3677
sS's00000021'
p3678
S'7775-41-9'
p3679
sS's00000022'
p3680
S'7429-90-5'
p3681
sS's00000023'
p3682
S'32752-94-6'
p3683
sS's00000024'
p3684
S'18898-34-5'
p3685
sS's00000025'
p3686
S'13845-12-0'
p3687
sS's00000026'
p3688
S'12004-36-3'
p3689
sS's00000027'
p3690
S'12252-63-0'
p3691
sS's00000028'
p3692
S'12250-38-3'
p3693
sS's00000029'
p3694
S'22359-97-3'
p3695
sS's00001287'
p3696
S'79440-52-1'
p3697
sS's00001286'
p3698
S'79440-51-0'
p3699
sS's00001285'
p3700
S'61638-07-1'
p3701
sS's00005686'
p3702
S'34346-16-2'
p3703
sS's00003829'
p3704
S'512-56-1'
p3705
sS's00004677'
p3706
S'5955-98-6'
p3707
sS's00009296'
p3708
S'925-94-0'
p3709
sS's00009297'
p3710
S'13453-52-6'
p3711
sS's00009290'
p3712
S'7175-74-8'
p3713
sS's00009291'
p3714
S'558-02-1'
p3715
sS's00007856'
p3716
S'49665-74-9'
p3717
sS's00007857'
p3718
S'73322-95-9'
p3719
sS's00007858'
p3720
S'10499-33-9'
p3721
sS's00003823'
p3722
S'2953-29-9'
p3723
sS's00009172'
p3724
S'63583-16-4'
p3725
sS's00003825'
p3726
S'121-45-9'
p3727
sS's00003824'
p3728
S'22608-53-3'
p3729
sS's00003827'
p3730
S'152-20-5'
p3731
sS's00003826'
p3732
S'152-18-1'
p3733
sS's00009980'
p3734
S'43650-16-4'
p3735
sS's00009981'
p3736
S'13818-89-8'
p3737
sS's00009982'
p3738
S'14939-17-4'
p3739
sS's00009983'
p3740
S'13768-63-3'
p3741
sS's00009456'
p3742
S'19165-34-5'
p3743
sS's00009457'
p3744
S'26903-07-1'
p3745
sS's00009454'
p3746
S'3982-91-0'
p3747
sS's00009455'
p3748
S'10025-91-9'
p3749
sS's00008103'
p3750
S'29636-65-5'
p3751
sS's00008102'
p3752
S'25493-13-4'
p3753
sS's00008101'
p3754
S'25319-54-4'
p3755
sS's00008452'
p3756
S'2362-36-9'
p3757
sS's00008455'
p3758
S'1538-89-2'
p3759
sS's00008454'
p3760
S'19935-78-5'
p3761
sS's00008457'
p3762
S'73004-96-3'
p3763
sS's00008456'
p3764
S'35144-25-3'
p3765
sS's00002413'
p3766
S'1691-17-4'
p3767
sS's00009278'
p3768
S'2565-30-2'
p3769
sS's00002410'
p3770
S'811-97-2'
p3771
sS's00002415'
p3772
S'54389-21-8'
p3773
sS's00002414'
p3774
S'147703-23-9'
p3775
sS's00009272'
p3776
S'67-66-3'
p3777
sS's00009273'
p3778
S'33272-71-8'
p3779
sS's00009270'
p3780
S'114282-90-5'
p3781
sS's00002418'
p3782
S'590-26-1'
p3783
sS's00009276'
p3784
S'114282-91-6'
p3785
sS's00002327'
p3786
S'540-59-0'
p3787
sS's00009274'
p3788
S'75-45-6'
p3789
sS's00003129'
p3790
S'2207-64-9'
p3791
sS's00010173'
p3792
S'12030-49-8'
p3793
sS's00010172'
p3794
S'12030-48-7'
p3795
sS's00010171'
p3796
S'7439-88-5'
p3797
sS's00010170'
p3798
S'12030-19-2'
p3799
sS's00010177'
p3800
S'12136-45-7'
p3801
sS's00010176'
p3802
S'25681-80-5'
p3803
sS's00001469'
p3804
S'74309-55-0'
p3805
sS's00001468'
p3806
S'6772-77-6'
p3807
sS's00001467'
p3808
S'5350-12-9'
p3809
sS's00001466'
p3810
S'77275-12-8'
p3811
sS's00001465'
p3812
S'76293-40-8'
p3813
sS's00001464'
p3814
S'74309-56-1'
p3815
sS's00001463'
p3816
S'5847-71-2'
p3817
sS's00004102'
p3818
S'594-27-4'
p3819
sS's00001461'
p3820
S'15243-33-1'
p3821
sS's00001460'
p3822
S'15696-40-9'
p3823
sS's00009188'
p3824
S'7175-75-9'
p3825
sS's00009189'
p3826
S'17032-46-1'
p3827
sS's00010773'
p3828
S'14581-92-1'
p3829
sS's00010772'
p3830
S'16915-28-9'
p3831
sS's00010775'
p3832
S'12068-51-8'
p3833
sS's00010774'
p3834
S'12068-51-8'
p3835
sS's00010777'
p3836
S'60175-01-1'
p3837
sS's00010776'
p3838
S'32195-53-2'
p3839
sS's00009180'
p3840
S'55791-37-2'
p3841
sS's00010778'
p3842
S'21308-25-8'
p3843
sS's00001195'
p3844
S'29949-75-5'
p3845
sS's00009183'
p3846
S'130351-42-7'
p3847
sS's00001193'
p3848
S'68825-45-6'
p3849
sS's00001192'
p3850
S'68825-46-7'
p3851
sS's00001191'
p3852
S'33155-59-8'
p3853
sS's00009187'
p3854
S'122899-88-1'
p3855
sS's00009676'
p3856
S'13709-36-9'
p3857
sS's00009677'
p3858
S'13842-94-9'
p3859
sS's00009674'
p3860
S'13814-20-5'
p3861
sS's00009675'
p3862
S'33963-15-4'
p3863
sS's00009672'
p3864
S'13966-66-0'
p3865
sS's00009673'
p3866
S'7783-47-3'
p3867
sS's00009670'
p3868
S'13709-35-8'
p3869
sS's00009671'
p3870
S'101947-30-2'
p3871
sS's00001342'
p3872
S'84159-43-3'
p3873
sS's00009678'
p3874
S'73455-86-4'
p3875
sS's00009679'
p3876
S'7783-50-8'
p3877
sS's00007779'
p3878
S'1689-78-7'
p3879
sS's00005243'
p3880
S'626-61-9'
p3881
sS's00010536'
p3882
S'207602-05-9'
p3883
sS's00010175'
p3884
S'7440-09-7'
p3885
sS's00007778'
p3886
S'76698-82-3'
p3887
sS's00010174'
p3888
S'12030-50-1'
p3889
sS's00007672'
p3890
S'10311-08-7'
p3891
sS's00008926'
p3892
S'14863-68-4'
p3893
sS's00004107'
p3894
S'3732-86-3'
p3895
sS's00008795'
p3896
S'2415-80-7'
p3897
sS's00004106'
p3898
S'59409-81-3'
p3899
sS's00005615'
p3900
S'2905-39-7'
p3901
sS's00010179'
p3902
S'12030-83-0'
p3903
sS's00008032'
p3904
S'629-35-6'
p3905
sS's00010535'
p3906
S'268566-74-1'
p3907
sS's00010178'
p3908
S'17014-71-0'
p3909
sS's00009690'
p3910
S'2404-52-6'
p3911
sS's00004103'
p3912
S'33196-65-5'
p3913
sS's00002963'
p3914
S'29804-89-5'
p3915
sS's00010684'
p3916
S'94888-09-2'
p3917
sS's00002961'
p3918
S'2837-89-0'
p3919
sS's00010686'
p3920
S'38178-38-0'
p3921
sS's00010681'
p3922
S'244037-23-8'
p3923
sS's00010680'
p3924
S'574003-32-0'
p3925
sS's00010683'
p3926
S'591755-82-7'
p3927
sS's00010682'
p3928
S'591755-81-6'
p3929
sS's00009075'
p3930
S'60187-22-6'
p3931
sS's00001349'
p3932
S'2350-13-2'
p3933
sS's00005241'
p3934
S'109-09-1'
p3935
sS's00009470'
p3936
S'10026-10-5'
p3937
sS's00010534'
p3938
S'144087-36-5'
p3939
sS's00010771'
p3940
S'24203-36-9'
p3941
sS's00009691'
p3942
S'88548-61-2'
p3943
sS's00010770'
p3944
S'39319-71-6'
p3945
sS's00007774'
p3946
S'93638-55-2'
p3947
sS's00002989'
p3948
S'18602-00-1'
p3949
sS's00002988'
p3950
S'359-11-5'
p3951
sS's00007777'
p3952
S'15578-82-2'
p3953
sS's00002981'
p3954
S'103259-34-3'
p3955
sS's00002980'
p3956
S'1859-08-1'
p3957
sS's00002983'
p3958
S'70302-00-0'
p3959
sS's00002982'
p3960
S'2713-09-9'
p3961
sS's00002985'
p3962
S'40225-51-2'
p3963
sS's00004647'
p3964
S'38103-96-7'
p3965
sS's00007201'
p3966
S'2097-60-1'
p3967
sS's00002986'
p3968
S'151258-44-5'
p3969
sS's00000837'
p3970
S'10170-69-1'
p3971
sS's00003379'
p3972
S'122211-66-9'
p3973
sS's00010359'
p3974
S'13451-17-7'
p3975
sS's00010358'
p3976
S'12035-91-5'
p3977
sS's00003378'
p3978
S'119181-59-8'
p3979
sS's00010352'
p3980
S'12059-91-5'
p3981
sS's00010351'
p3982
S'20901-21-7'
p3983
sS's00010357'
p3984
S'12035-90-4'
p3985
sS's00010356'
p3986
S'1314-11-0'
p3987
sS's00010355'
p3988
S'21651-19-4'
p3989
sS's00010354'
p3990
S'12035-88-0'
p3991
sS's00010199'
p3992
S'12333-49-2'
p3993
sS's00010779'
p3994
S'68193-66-8'
p3995
sS's00008977'
p3996
S'353-50-4'
p3997
sS's00003551'
p3998
S'65149-63-5'
p3999
sS's00010191'
p4000
S'12031-20-8'
p4001
sS's00010190'
p4002
S'7439-91-0'
p4003
sS's00010193'
p4004
S'7439-93-2'
p4005
sS's00010192'
p4006
S'12142-67-5'
p4007
sS's00010195'
p4008
S'12057-24-8'
p4009
sS's00010194'
p4010
S'14452-59-6'
p4011
sS's00010197'
p4012
S'69235-02-5'
p4013
sS's00010196'
p4014
S'12031-80-0'
p4015
sS's00004176'
p4016
S'18599-20-7'
p4017
sS's00006294'
p4018
S'1188-14-3'
p4019
sS's00009184'
p4020
S'127838-98-6'
p4021
sS's00009185'
p4022
S'24383-91-3'
p4023
sS's00002181'
p4024
S'116328-97-3'
p4025
sS's00009192'
p4026
S'42217-98-1'
p4027
sS's00002183'
p4028
S'354-58-5'
p4029
sS's00002182'
p4030
S'76-13-1'
p4031
sS's00009186'
p4032
S'25683-64-1'
p4033
sS's00002187'
p4034
S'41970-16-5'
p4035
sS's00003370'
p4036
S'1617-17-0'
p4037
sS's00002189'
p4038
S'127-18-4'
p4039
sS's00009473'
p4040
S'10026-11-6'
p4041
sS's00003373'
p4042
S'89397-79-5'
p4043
sS's00006290'
p4044
S'44564-80-9'
p4045
sS's00006391'
p4046
S'100-00-5'
p4047
sS's00006293'
p4048
S'29680-38-4'
p4049
sS's00002349'
p4050
S'2268-31-7'
p4051
sS's00002348'
p4052
S'630-20-6'
p4053
sS's00002347'
p4054
S'79-34-5'
p4055
sS's00002346'
p4056
S'162193-90-0'
p4057
sS's00002344'
p4058
S'2366-36-1'
p4059
sS's00002343'
p4060
S'811-95-0'
p4061
sS's00000038'
p4062
S'7784-18-1'
p4063
sS's00002341'
p4064
S'23273-89-4'
p4065
sS's00002340'
p4066
S'23273-88-3'
p4067
sS's00003817'
p4068
S'4648-54-8'
p4069
sS's00009474'
p4070
S'666816-55-3'
p4071
sS's00000518'
p4072
S'33151-84-7'
p4073
sS's00003176'
p4074
S'52491-45-9'
p4075
sS's00009190'
p4076
S'29245-72-5'
p4077
sS's00009475'
p4078
S'10241-05-1'
p4079
sS's00001980'
p4080
S'3975-77-7'
p4081
sS's00001981'
p4082
S'31039-82-4'
p4083
sS's00000519'
p4084
S'935-56-8'
p4085
sS's00003785'
p4086
S'75-24-1'
p4087
sS's00006084'
p4088
S'55613-71-3'
p4089
sS's00006085'
p4090
S'123136-51-6'
p4091
sS's00006086'
p4092
S'82810-50-2'
p4093
sS's00008856'
p4094
S'107701-37-1'
p4095
sS's00006080'
p4096
S'2432-37-3'
p4097
sS's00006081'
p4098
S'2432-39-5'
p4099
sS's00006082'
p4100
S'55613-69-9'
p4101
sS's00006083'
p4102
S'55613-70-2'
p4103
sS's00001507'
p4104
S'831-91-4'
p4105
sS's00006088'
p4106
S'17066-32-9'
p4107
sS's00006089'
p4108
S'27817-67-0'
p4109
sS's00006936'
p4110
S'42332-45-6'
p4111
sS's00001450'
p4112
S'321-60-8'
p4113
sS's00006247'
p4114
S'6968-20-3'
p4115
sS's00006248'
p4116
S'16156-55-1'
p4117
sS's00006249'
p4118
S'2211-89-4'
p4119
sS's00000785'
p4120
S'90-13-1'
p4121
sS's00007046'
p4122
S'65786-09-6'
p4123
sS's00006060'
p4124
S'38103-98-9'
p4125
sS's00003763'
p4126
S'534-13-4'
p4127
sS's00008938'
p4128
S'2122-44-3'
p4129
sS's00008939'
p4130
S'1111-88-2'
p4131
sS's00008936'
p4132
S'1664-98-8'
p4133
sS's00008937'
p4134
S'920-42-3'
p4135
sS's00008934'
p4136
S'51624-18-1'
p4137
sS's00008930'
p4138
S'1665-00-5'
p4139
sS's00010532'
p4140
S'83917-77-5'
p4141
sS's00001878'
p4142
S'38695-34-0'
p4143
sS's00003165'
p4144
S'422-98-0'
p4145
sS's00004876'
p4146
S'559-40-0'
p4147
sS's00001875'
p4148
S'2844-19-1'
p4149
sS's00001876'
p4150
S'69957-42-2'
p4151
sS's00001877'
p4152
S'1272-35-1'
p4153
sS's00006408'
p4154
S'540-36-3'
p4155
sS's00009001'
p4156
S'77488-74-5'
p4157
sS's00009000'
p4158
S'174007-83-1'
p4159
sS's00003160'
p4160
S'677-69-0'
p4161
sS's00003161'
p4162
S'754-34-7'
p4163
sS's00003162'
p4164
S'27636-85-7'
p4165
sS's00003163'
p4166
S'1561-52-0'
p4167
sS's00006404'
p4168
S'95576-25-3'
p4169
sS's00009003'
p4170
S'89831-20-9'
p4171
sS's00003166'
p4172
S'423-26-7'
p4173
sS's00006407'
p4174
S'372-18-9'
p4175
sS's00003582'
p4176
S'15403-25-5'
p4177
sS's00003583'
p4178
S'4168-05-2'
p4179
sS's00003580'
p4180
S'2730-67-8'
p4181
sS's00003581'
p4182
S'24566-75-4'
p4183
sS's00000129'
p4184
S'1332-64-5'
p4185
sS's00007258'
p4186
S'618-38-2'
p4187
sS's00003584'
p4188
S'94816-42-9'
p4189
sS's00006269'
p4190
S'2344-83-4'
p4191
sS's00000125'
p4192
S'1304-56-9'
p4193
sS's00000124'
p4194
S'7787-49-7'
p4195
sS's00000127'
p4196
S'12187-12-1'
p4197
sS's00007259'
p4198
S'618-51-9'
p4199
sS's00000121'
p4200
S'13814-50-1'
p4201
sS's00000120'
p4202
S'61279-76-3'
p4203
sS's00000123'
p4204
S'13597-96-1'
p4205
sS's00009004'
p4206
S'115408-73-6'
p4207
sS's00003345'
p4208
S'13749-37-6'
p4209
sS's00003347'
p4210
S'460-32-2'
p4211
sS's00003348'
p4212
S'2417-90-5'
p4213
sS's00010558'
p4214
S'13676-58-9'
p4215
sS's00004808'
p4216
S'16648-23-0'
p4217
sS's00004809'
p4218
S'16812-18-3'
p4219
sS's00008738'
p4220
S'1116-61-6'
p4221
sS's00008739'
p4222
S'1776-66-5'
p4223
sS's00001026'
p4224
S'36375-63-0'
p4225
sS's00006668'
p4226
S'18599-21-8'
p4227
sS's00007250'
p4228
S'402-45-9'
p4229
sS's00003299'
p4230
S'421-50-1'
p4231
sS's00003296'
p4232
S'32718-30-2'
p4233
sS's00003294'
p4234
S'75705-14-5'
p4235
sS's00007251'
p4236
S'444-30-4'
p4237
sS's00003293'
p4238
S'28987-21-5'
p4239
sS's00003290'
p4240
S'24704-57-2'
p4241
sS's00004248'
p4242
S'62214-44-2'
p4243
sS's00004249'
p4244
S'62239-39-8'
p4245
sS's00006937'
p4246
S'823-25-6'
p4247
sS's00007138'
p4248
S'161535-18-8'
p4249
sS's00004240'
p4250
S'1822-86-2'
p4251
sS's00004241'
p4252
S'33954-15-3'
p4253
sS's00004242'
p4254
S'126-99-8'
p4255
sS's00004243'
p4256
S'1473-54-7'
p4257
sS's00001151'
p4258
S'12089-15-5'
p4259
sS's00004246'
p4260
S'625-35-4'
p4261
sS's00008205'
p4262
S'350-51-6'
p4263
sS's00008126'
p4264
S'766-99-4'
p4265
sS's00000239'
p4266
S'12116-66-4'
p4267
sS's00001157'
p4268
S'26929-23-7'
p4269
sS's00003744'
p4270
S'3741-36-4'
p4271
sS's00009868'
p4272
S'62470-59-1'
p4273
sS's00004476'
p4274
S'462-26-0'
p4275
sS's00009513'
p4276
S'13465-10-6'
p4277
sS's00009512'
p4278
S'7790-99-0'
p4279
sS's00009511'
p4280
S'7546-30-7'
p4281
sS's00010516'
p4282
S'1320-41-8'
p4283
sS's00010511'
p4284
S'211235-51-7'
p4285
sS's00009516'
p4286
S'95860-66-5'
p4287
sS's00009515'
p4288
S'95386-61-1'
p4289
sS's00010512'
p4290
S'30860-28-7'
p4291
sS's00009519'
p4292
S'12190-75-9'
p4293
sS's00004474'
p4294
S'461-24-5'
p4295
sS's00001724'
p4296
S'4168-06-3'
p4297
sS's00007629'
p4298
S'766-92-7'
p4299
sS's00007628'
p4300
S'623-13-2'
p4301
sS's00010477'
p4302
S'345234-24-4'
p4303
sS's00007623'
p4304
S'934-72-5'
p4305
sS's00005207'
p4306
S'1560-28-7'
p4307
sS's00007621'
p4308
S'92688-77-2'
p4309
sS's00005345'
p4310
S'21035-65-4'
p4311
sS's00007627'
p4312
S'622-38-8'
p4313
sS's00007626'
p4314
S'4170-80-3'
p4315
sS's00007625'
p4316
S'2388-73-0'
p4317
sS's00007624'
p4318
S'1879-16-9'
p4319
sS's00008200'
p4320
S'99-91-2'
p4321
sS's00008201'
p4322
S'610-96-8'
p4323
sS's00008202'
p4324
S'1878-65-5'
p4325
sS's00001158'
p4326
S'26929-24-8'
p4327
sS's00004028'
p4328
S'1551-21-9'
p4329
sS's00004029'
p4330
S'3877-15-4'
p4331
sS's00001058'
p4332
S'17015-99-5'
p4333
sS's00008207'
p4334
S'405-99-2'
p4335
sS's00004024'
p4336
S'109-79-5'
p4337
sS's00004025'
p4338
S'352-93-2'
p4339
sS's00004026'
p4340
S'513-44-0'
p4341
sS's00001055'
p4342
S'83510-95-6'
p4343
sS's00004020'
p4344
S'1912-31-8'
p4345
sS's00004021'
p4346
S'70-29-1'
p4347
sS's00004023'
p4348
S'75-66-1'
p4349
sS's00000055'
p4350
S'58206-67-0'
p4351
sS's00000054'
p4352
S'12301-65-4'
p4353
sS's00000057'
p4354
S'23878-46-8'
p4355
sS's00010474'
p4356
S'18851-76-8'
p4357
sS's00000051'
p4358
S'12254-69-2'
p4359
sS's00000050'
p4360
S'12595-59-4'
p4361
sS's00000053'
p4362
S'51184-77-1'
p4363
sS's00000052'
p4364
S'87193-95-1'
p4365
sS's00000059'
p4366
S'12505-67-8'
p4367
sS's00000058'
p4368
S'12187-08-5'
p4369
sS's00005442'
p4370
S'25006-60-4'
p4371
sS's00010429'
p4372
S'7440-27-9'
p4373
sS's00010428'
p4374
S'7440-25-7'
p4375
sS's00005991'
p4376
S'35840-78-9'
p4377
sS's00005990'
p4378
S'16597-35-6'
p4379
sS's00009171'
p4380
S'115-08-2'
p4381
sS's00005996'
p4382
S'71771-38-5'
p4383
sS's00005995'
p4384
S'56796-56-6'
p4385
sS's00005994'
p4386
S'53597-69-6'
p4387
sS's00003832'
p4388
S'38007-05-5'
p4389
sS's00003833'
p4390
S'594-10-5'
p4391
sS's00003830'
p4392
S'676-96-0'
p4393
sS's00003831'
p4394
S'594-09-2'
p4395
sS's00010425'
p4396
S'7440-19-9'
p4397
sS's00003837'
p4398
S'17272-57-0'
p4399
sS's00010427'
p4400
S'7440-24-6'
p4401
sS's00010426'
p4402
S'7440-31-5'
p4403
sS's00009467'
p4404
S'7646-78-8'
p4405
sS's00010475'
p4406
S'17141-28-5'
p4407
sS's00009465'
p4408
S'10026-04-7'
p4409
sS's00009464'
p4410
S'13320-71-3'
p4411
sS's00009463'
p4412
S'13499-05-3'
p4413
sS's00008119'
p4414
S'57147-28-1'
p4415
sS's00009461'
p4416
S'10038-98-9'
p4417
sS's00009460'
p4418
S'25251-04-1'
p4419
sS's00008114'
p4420
S'57147-27-0'
p4421
sS's00008115'
p4422
S'766-83-6'
p4423
sS's00008116'
p4424
S'873-73-4'
p4425
sS's00008117'
p4426
S'10133-41-2'
p4427
sS's00008111'
p4428
S'5350-05-0'
p4429
sS's00009469'
p4430
S'7550-45-0'
p4431
sS's00001617'
p4432
S'82136-07-0'
p4433
sS's00002404'
p4434
S'353-83-3'
p4435
sS's00002405'
p4436
S'354-38-1'
p4437
sS's00002406'
p4438
S'147703-28-4'
p4439
sS's00002401'
p4440
S'3248-58-6'
p4441
sS's00002402'
p4442
S'114810-01-4'
p4443
sS's00002403'
p4444
S'116819-06-8'
p4445
sS's00009247'
p4446
S'1449-65-6'
p4447
sS's00009246'
p4448
S'635315-39-8'
p4449
sS's00008209'
p4450
S'455-36-7'
p4451
sS's00009244'
p4452
S'593-54-4'
p4453
sS's00005975'
p4454
S'2163-00-0'
p4455
sS's00005974'
p4456
S'2162-92-7'
p4457
sS's00005977'
p4458
S'15678-99-6'
p4459
sS's00005976'
p4460
S'13275-18-8'
p4461
sS's00001470'
p4462
S'74309-53-8'
p4463
sS's00001471'
p4464
S'76293-38-4'
p4465
sS's00001472'
p4466
S'77275-10-6'
p4467
sS's00004113'
p4468
S'3141-27-3'
p4469
sS's00001474'
p4470
S'74309-57-2'
p4471
sS's00010161'
p4472
S'13494-92-3'
p4473
sS's00004116'
p4474
S'95313-95-4'
p4475
sS's00010163'
p4476
S'7790-29-6'
p4477
sS's00004119'
p4478
S'10545-58-1'
p4479
sS's00010168'
p4480
S'12030-14-7'
p4481
sS's00010169'
p4482
S'1312-42-1'
p4483
sS's00005195'
p4484
S'16606-18-1'
p4485
sS's00006517'
p4486
S'95-51-2'
p4487
sS's00010762'
p4488
S'24993-08-6'
p4489
sS's00010763'
p4490
S'74835-82-8'
p4491
sS's00009649'
p4492
S'13819-11-9'
p4493
sS's00009648'
p4494
S'13940-63-1'
p4495
sS's00010766'
p4496
S'7349-97-6'
p4497
sS's00010767'
p4498
S'184842-55-5'
p4499
sS's00010764'
p4500
S'7349-97-6'
p4501
sS's00010765'
p4502
S'7349-97-6'
p4503
sS's00009643'
p4504
S'64711-87-1'
p4505
sS's00009642'
p4506
S'12395-41-4'
p4507
sS's00009641'
p4508
S'14762-94-8'
p4509
sS's00009640'
p4510
S'12020-65-4'
p4511
sS's00009647'
p4512
S'7789-28-8'
p4513
sS's00009646'
p4514
S'7782-41-4'
p4515
sS's00009645'
p4516
S'71596-44-6'
p4517
sS's00009644'
p4518
S'5714-22-7'
p4519
sS's00010406'
p4520
S'7446-34-6'
p4521
sS's00002960'
p4522
S'354-25-6'
p4523
sS's00009880'
p4524
S'100012-09-7'
p4525
sS's00010852'
p4526
S'7733-02-0'
p4527
sS's00009887'
p4528
S'7664-93-9'
p4529
sS's00009886'
p4530
S'18480-07-4'
p4531
sS's00009423'
p4532
S'12442-63-6'
p4533
sS's00006519'
p4534
S'108-42-9'
p4535
sS's00004179'
p4536
S'62214-41-9'
p4537
sS's00002965'
p4538
S'72188-43-3'
p4539
sS's00010464'
p4540
S'13703-91-8'
p4541
sS's00002964'
p4542
S'2210-34-6'
p4543
sS's00009933'
p4544
S'5329-14-6'
p4545
sS's00002576'
p4546
S'55198-01-1'
p4547
sS's00010855'
p4548
S'7429-90-5'
p4549
sS's00009420'
p4550
S'17496-59-2'
p4551
sS's00005379'
p4552
S'19376-15-9'
p4553
sS's00005378'
p4554
S'3974-99-0'
p4555
sS's00005377'
p4556
S'930-29-0'
p4557
sS's00009427'
p4558
S'20762-58-7'
p4559
sS's00005375'
p4560
S'119291-22-4'
p4561
sS's00004596'
p4562
S'83984-55-8'
p4563
sS's00009426'
p4564
S'10213-09-9'
p4565
sS's00008914'
p4566
S'506-77-4'
p4567
sS's00000516'
p4568
S'768-90-1'
p4569
sS's00010463'
p4570
S'12045-60-2'
p4571
sS's00008915'
p4572
S'1943-16-4'
p4573
sS's00010471'
p4574
S'4371-77-1'
p4575
sS's00010109'
p4576
S'135659-61-9'
p4577
sS's00010462'
p4578
S'14452-61-0'
p4579
sS's00008916'
p4580
S'13858-09-8'
p4581
sS's00002805'
p4582
S'5819-02-3'
p4583
sS's00002974'
p4584
S'2154-63-4'
p4585
sS's00002975'
p4586
S'25854-32-4'
p4587
sS's00002976'
p4588
S'25854-33-5'
p4589
sS's00002977'
p4590
S'91419-90-8'
p4591
sS's00002970'
p4592
S'56912-77-7'
p4593
sS's00009084'
p4594
S'16890-80-5'
p4595
sS's00009087'
p4596
S'6596-50-5'
p4597
sS's00009086'
p4598
S'865-36-1'
p4599
sS's00008910'
p4600
S'19845-51-3'
p4601
sS's00002978'
p4602
S'4397-42-6'
p4603
sS's00002979'
p4604
S'3681-30-9'
p4605
sS's00010698'
p4606
S'94227-23-3'
p4607
sS's00008911'
p4608
S'353-49-1'
p4609
sS's00003974'
p4610
S'1719-53-5'
p4611
sS's00003973'
p4612
S'592-02-9'
p4613
sS's00000828'
p4614
S'18175-21-8'
p4615
sS's00000829'
p4616
S'76293-36-2'
p4617
sS's00010544'
p4618
S'677-21-4'
p4619
sS's00002992'
p4620
S'76-05-1'
p4621
sS's00002993'
p4622
S'40617-75-2'
p4623
sS's00002990'
p4624
S'75-90-1'
p4625
sS's00000823'
p4626
S'30626-02-9'
p4627
sS's00002996'
p4628
S'3822-63-7'
p4629
sS's00002997'
p4630
S'147703-29-5'
p4631
sS's00002994'
p4632
S'109088-08-6'
p4633
sS's00002995'
p4634
S'3831-49-0'
p4635
sS's00005575'
p4636
S'3153-37-5'
p4637
sS's00005574'
p4638
S'1119-46-6'
p4639
sS's00005577'
p4640
S'22421-97-2'
p4641
sS's00005576'
p4642
S'17462-58-7'
p4643
sS's00005571'
p4644
S'623-60-9'
p4645
sS's00005570'
p4646
S'592-34-7'
p4647
sS's00005573'
p4648
S'817-76-5'
p4649
sS's00005572'
p4650
S'623-71-2'
p4651
sS's00010344'
p4652
S'12143-03-2'
p4653
sS's00010345'
p4654
S'12137-18-7'
p4655
sS's00010346'
p4656
S'12143-05-4'
p4657
sS's00010347'
p4658
S'13827-32-2'
p4659
sS's00010340'
p4660
S'12035-81-3'
p4661
sS's00010341'
p4662
S'12035-82-4'
p4663
sS's00010342'
p4664
S'12509-27-2'
p4665
sS's00010343'
p4666
S'18088-11-4'
p4667
sS's00010188'
p4668
S'51682-34-9'
p4669
sS's00010189'
p4670
S'12521-42-5'
p4671
sS's00010182'
p4672
S'12401-70-6'
p4673
sS's00010183'
p4674
S'12030-88-5'
p4675
sS's00010181'
p4676
S'12056-29-0'
p4677
sS's00010186'
p4678
S'7439-90-9'
p4679
sS's00010187'
p4680
S'12596-40-6'
p4681
sS's00010184'
p4682
S'106992-37-4'
p4683
sS's00010185'
p4684
S'12333-39-0'
p4685
sS's00007615'
p4686
S'111160-47-5'
p4687
sS's00002192'
p4688
S'76-12-0'
p4689
sS's00002193'
p4690
S'76-02-8'
p4691
sS's00001517'
p4692
S'2129-89-7'
p4693
sS's00002196'
p4694
S'38510-76-8'
p4695
sS's00002197'
p4696
S'67-72-1'
p4697
sS's00002194'
p4698
S'7094-17-9'
p4699
sS's00002195'
p4700
S'31366-23-1'
p4701
sS's00002198'
p4702
S'111005-89-1'
p4703
sS's00002962'
p4704
S'125672-34-6'
p4705
sS's00002350'
p4706
S'2268-32-8'
p4707
sS's00002351'
p4708
S'2317-91-1'
p4709
sS's00000786'
p4710
S'91-58-7'
p4711
sS's00002355'
p4712
S'134469-99-1'
p4713
sS's00002356'
p4714
S'75-88-7'
p4715
sS's00002357'
p4716
S'421-04-5'
p4717
sS's00002358'
p4718
S'431-07-2'
p4719
sS's00000781'
p4720
S'36579-71-2'
p4721
sS's00000910'
p4722
S'35306-56-0'
p4723
sS's00000911'
p4724
S'42498-40-8'
p4725
sS's00000780'
p4726
S'64869-35-8'
p4727
sS's00006536'
p4728
S'372-19-0'
p4729
sS's00003784'
p4730
S'82065-00-7'
p4731
sS's00003183'
p4732
S'31464-99-0'
p4733
sS's00000077'
p4734
S'12429-34-4'
p4735
sS's00000034'
p4736
S'22395-91-1'
p4737
sS's00002799'
p4738
S'2524-03-0'
p4739
sS's00010760'
p4740
S'51912-69-7'
p4741
sS's00009450'
p4742
S'13597-20-1'
p4743
sS's00006191'
p4744
S'7735-82-2'
p4745
sS's00009102'
p4746
S'87330-92-5'
p4747
sS's00005460'
p4748
S'85209-31-0'
p4749
sS's00008842'
p4750
S'58313-23-8'
p4751
sS's00008840'
p4752
S'77355-30-7'
p4753
sS's00008841'
p4754
S'51934-41-9'
p4755
sS's00002984'
p4756
S'40225-50-1'
p4757
sS's00008231'
p4758
S'52707-46-7'
p4759
sS's00000056'
p4760
S'7440-38-2'
p4761
sS's00003786'
p4762
S'474380-08-0'
p4763
sS's00000993'
p4764
S'75503-13-8'
p4765
sS's00003753'
p4766
S'40225-52-3'
p4767
sS's00003752'
p4768
S'462-41-9'
p4769
sS's00003751'
p4770
S'19469-03-5'
p4771
sS's00003750'
p4772
S'1719-57-9'
p4773
sS's00003025'
p4774
S'55186-08-8'
p4775
sS's00003024'
p4776
S'624-74-8'
p4777
sS's00006059'
p4778
S'29518-83-0'
p4779
sS's00003754'
p4780
S'82064-99-1'
p4781
sS's00007631'
p4782
S'699-20-7'
p4783
sS's00007204'
p4784
S'996-50-9'
p4785
sS's00000835'
p4786
S'69957-44-4'
p4787
sS's00004151'
p4788
S'51472-79-8'
p4789
sS's00008903'
p4790
S'1691-88-9'
p4791
sS's00008902'
p4792
S'56-23-5'
p4793
sS's00008901'
p4794
S'69884-58-8'
p4795
sS's00008900'
p4796
S'109026-11-1'
p4797
sS's00008907'
p4798
S'93105-07-8'
p4799
sS's00008906'
p4800
S'83498-79-7'
p4801
sS's00008905'
p4802
S'70490-95-8'
p4803
sS's00008904'
p4804
S'1691-89-0'
p4805
sS's00008909'
p4806
S'22082-78-6'
p4807
sS's00008908'
p4808
S'75-72-9'
p4809
sS's00007454'
p4810
S'5751-80-4'
p4811
sS's00007457'
p4812
S'696-63-9'
p4813
sS's00001887'
p4814
S'33274-41-8'
p4815
sS's00007453'
p4816
S'3112-85-4'
p4817
sS's00001889'
p4818
S'33274-43-0'
p4819
sS's00001888'
p4820
S'33274-42-9'
p4821
sS's00000830'
p4822
S'80992-91-2'
p4823
sS's00007458'
p4824
S'1193-82-4'
p4825
sS's00007459'
p4826
S'7217-59-6'
p4827
sS's00006355'
p4828
S'372-38-3'
p4829
sS's00003119'
p4830
S'2003-31-8'
p4831
sS's00003118'
p4832
S'76-18-6'
p4833
sS's00000255'
p4834
S'1271-28-9'
p4835
sS's00003115'
p4836
S'68883-61-4'
p4837
sS's00003114'
p4838
S'136649-69-9'
p4839
sS's00003117'
p4840
S'65322-37-4'
p4841
sS's00003116'
p4842
S'116-16-5'
p4843
sS's00003111'
p4844
S'25476-71-5'
p4845
sS's00006470'
p4846
S'36274-76-7'
p4847
sS's00006473'
p4848
S'591-50-4'
p4849
sS's00006472'
p4850
S'12189-10-5'
p4851
sS's00000103'
p4852
S'13840-88-5'
p4853
sS's00000138'
p4854
S'7789-46-0'
p4855
sS's00000139'
p4856
S'24415-00-7'
p4857
sS's00000136'
p4858
S'15964-99-5'
p4859
sS's00000137'
p4860
S'29871-63-4'
p4861
sS's00000134'
p4862
S'7726-95-6'
p4863
sS's00000135'
p4864
S'7789-41-5'
p4865
sS's00000132'
p4866
S'7440-40-6'
p4867
sS's00000133'
p4868
S'10097-32-2'
p4869
sS's00000130'
p4870
S'12048-34-9'
p4871
sS's00000131'
p4872
S'12010-57-0'
p4873
sS's00003627'
p4874
S'5687-92-3'
p4875
sS's00003334'
p4876
S'288-47-1'
p4877
sS's00003976'
p4878
S'5926-38-5'
p4879
sS's00000839'
p4880
S'14285-68-8'
p4881
sS's00003333'
p4882
S'288-16-4'
p4883
sS's00003332'
p4884
S'32091-51-3'
p4885
sS's00000107'
p4886
S'10553-31-8'
p4887
sS's00000838'
p4888
S'14693-30-2'
p4889
sS's00008323'
p4890
S'1331-31-3'
p4891
sS's00004833'
p4892
S'54856-36-9'
p4893
sS's00004830'
p4894
S'44780-98-5'
p4895
sS's00004837'
p4896
S'59982-53-5'
p4897
sS's00000105'
p4898
S'7440-39-3'
p4899
sS's00006983'
p4900
S'18245-28-8'
p4901
sS's00004834'
p4902
S'13463-39-3'
p4903
sS's00004839'
p4904
S'12547-95-4'
p4905
sS's00004838'
p4906
S'114221-02-2'
p4907
sS's00006989'
p4908
S'65786-11-0'
p4909
sS's00009451'
p4910
S'10025-87-3'
p4911
sS's00003975'
p4912
S'2917-46-6'
p4913
sS's00008322'
p4914
S'672-65-1'
p4915
sS's00007055'
p4916
S'30826-80-3'
p4917
sS's00007120'
p4918
S'29756-37-4'
p4919
sS's00004162'
p4920
S'406-78-0'
p4921
sS's00004234'
p4922
S'290-79-9'
p4923
sS's00003978'
p4924
S'119628-75-0'
p4925
sS's00004460'
p4926
S'627-00-9'
p4927
sS's00003249'
p4928
S'83797-21-1'
p4929
sS's00003248'
p4930
S'2314-40-1'
p4931
sS's00003939'
p4932
S'669-78-3'
p4933
sS's00003938'
p4934
S'355-25-9'
p4935
sS's00010059'
p4936
S'13966-62-6'
p4937
sS's00008321'
p4938
S'622-24-2'
p4939
sS's00003932'
p4940
S'50340-75-5'
p4941
sS's00003930'
p4942
S'16954-96-4'
p4943
sS's00003937'
p4944
S'76913-33-2'
p4945
sS's00009879'
p4946
S'14691-46-4'
p4947
sS's00003935'
p4948
S'6255-38-5'
p4949
sS's00003934'
p4950
S'22026-37-5'
p4951
sS's00009504'
p4952
S'109621-61-6'
p4953
sS's00009505'
p4954
S'13637-83-7'
p4955
sS's00010504'
p4956
S'594-73-0'
p4957
sS's00010505'
p4958
S'90894-95-4'
p4959
sS's00009500'
p4960
S'41851-42-7'
p4961
sS's00010503'
p4962
S'777890-20-7'
p4963
sS's00010500'
p4964
S'749252-44-6'
p4965
sS's00010501'
p4966
S'777890-19-4'
p4967
sS's00008057'
p4968
S'107-47-1'
p4969
sS's00008056'
p4970
S'2211-92-9'
p4971
sS's00009508'
p4972
S'13997-90-5'
p4973
sS's00009509'
p4974
S'17108-85-9'
p4975
sS's00010508'
p4976
S'777890-18-3'
p4977
sS's00010509'
p4978
S'598-16-3'
p4979
sS's00004907'
p4980
S'2156-71-0'
p4981
sS's00004906'
p4982
S'23010-09-5'
p4983
sS's00004905'
p4984
S'23010-07-3'
p4985
sS's00004904'
p4986
S'23010-04-0'
p4987
sS's00004903'
p4988
S'17773-66-9'
p4989
sS's00004902'
p4990
S'625-67-2'
p4991
sS's00004901'
p4992
S'625-66-1'
p4993
sS's00004900'
p4994
S'624-96-4'
p4995
sS's00007634'
p4996
S'1528-88-7'
p4997
sS's00007635'
p4998
S'17774-38-8'
p4999
sS's00007637'
p5000
S'13271-49-3'
p5001
sS's00007630'
p5002
S'4886-77-5'
p5003
sS's00008118'
p5004
S'21211-29-0'
p5005
sS's00004909'
p5006
S'21363-83-7'
p5007
sS's00004908'
p5008
S'115523-09-6'
p5009
sS's00001063'
p5010
S'12125-87-0'
p5011
sS's00001062'
p5012
S'15825-93-1'
p5013
sS's00004587'
p5014
S'18138-14-2'
p5015
sS's00001066'
p5016
S'12146-37-1'
p5017
sS's00009902'
p5018
S'7783-09-7'
p5019
sS's00001064'
p5020
S'61997-36-2'
p5021
sS's00009229'
p5022
S'181633-50-1'
p5023
sS's00004588'
p5024
S'41168-96-1'
p5025
sS's00000397'
p5026
S'68167-29-3'
p5027
sS's00004341'
p5028
S'454-31-9'
p5029
sS's00004340'
p5030
S'22669-09-6'
p5031
sS's00000044'
p5032
S'85479-73-8'
p5033
sS's00004342'
p5034
S'34736-33-9'
p5035
sS's00001265'
p5036
S'73838-84-3'
p5037
sS's00004344'
p5038
S'421-74-9'
p5039
sS's00000040'
p5040
S'7784-23-8'
p5041
sS's00004346'
p5042
S'1119-20-6'
p5043
sS's00001341'
p5044
S'32690-35-0'
p5045
sS's00009478'
p5046
S'13596-35-5'
p5047
sS's00009479'
p5048
S'7647-18-9'
p5049
sS's00010438'
p5050
S'7440-30-4'
p5051
sS's00010439'
p5052
S'7440-61-1'
p5053
sS's00005980'
p5054
S'115523-10-9'
p5055
sS's00005981'
p5056
S'22442-71-3'
p5057
sS's00003809'
p5058
S'67536-36-1'
p5059
sS's00003808'
p5060
S'21941-60-6'
p5061
sS's00003807'
p5062
S'1445-79-0'
p5063
sS's00003806'
p5064
S'420-56-4'
p5065
sS's00003805'
p5066
S'39486-13-0'
p5067
sS's00003804'
p5068
S'18026-91-0'
p5069
sS's00003803'
p5070
S'1066-45-1'
p5071
sS's00003802'
p5072
S'3144-74-9'
p5073
sS's00003801'
p5074
S'75-77-4'
p5075
sS's00003800'
p5076
S'1529-47-1'
p5077
sS's00008539'
p5078
S'939-62-8'
p5079
sS's00001669'
p5080
S'12087-58-0'
p5081
sS's00001665'
p5082
S'72036-55-6'
p5083
sS's00001664'
p5084
S'59344-32-0'
p5085
sS's00001661'
p5086
S'1842-38-2'
p5087
sS's00001660'
p5088
S'61431-08-1'
p5089
sS's00001663'
p5090
S'72036-54-5'
p5091
sS's00009251'
p5092
S'1722-33-4'
p5093
sS's00009252'
p5094
S'20420-08-0'
p5095
sS's00009253'
p5096
S'42274-57-7'
p5097
sS's00004014'
p5098
S'597-35-3'
p5099
sS's00009255'
p5100
S'14362-13-1'
p5101
sS's00009256'
p5102
S'124-48-1'
p5103
sS's00009257'
p5104
S'1868-53-7'
p5105
sS's00009258'
p5106
S'593-94-2'
p5107
sS's00006389'
p5108
S'352-33-0'
p5109
sS's00008303'
p5110
S'6247-55-8'
p5111
sS's00008302'
p5112
S'93166-66-6'
p5113
sS's00002616'
p5114
S'5177-75-3'
p5115
sS's00008304'
p5116
S'6911-51-9'
p5117
sS's00004165'
p5118
S'10486-61-0'
p5119
sS's00004696'
p5120
S'78-76-2'
p5121
sS's00001406'
p5122
S'39227-54-8'
p5123
sS's00001401'
p5124
S'37680-68-5'
p5125
sS's00001400'
p5126
S'25323-68-6'
p5127
sS's00001403'
p5128
S'38444-87-0'
p5129
sS's00001402'
p5130
S'38444-86-9'
p5131
sS's00005186'
p5132
S'754-06-3'
p5133
sS's00005187'
p5134
S'1115-07-7'
p5135
sS's00005180'
p5136
S'4110-50-3'
p5137
sS's00005181'
p5138
S'5145-99-3'
p5139
sS's00004699'
p5140
S'507-19-7'
p5141
sS's00004698'
p5142
S'109-65-9'
p5143
sS's00010757'
p5144
S'63344-86-5'
p5145
sS's00010756'
p5146
S'30664-12-1'
p5147
sS's00002141'
p5148
S'12070-28-9'
p5149
sS's00009658'
p5150
S'13940-76-6'
p5151
sS's00009659'
p5152
S'7783-41-7'
p5153
sS's00002180'
p5154
S'110786-11-3'
p5155
sS's00009654'
p5156
S'13824-57-2'
p5157
sS's00009655'
p5158
S'3744-07-8'
p5159
sS's00009656'
p5160
S'13776-62-0'
p5161
sS's00009657'
p5162
S'13812-43-6'
p5163
sS's00009650'
p5164
S'13773-81-4'
p5165
sS's00009651'
p5166
S'7783-40-6'
p5167
sS's00009652'
p5168
S'7782-64-1'
p5169
sS's00009653'
p5170
S'20205-60-1'
p5171
sS's00005691'
p5172
S'759-15-9'
p5173
sS's00002795'
p5174
S'75-78-5'
p5175
sS's00009893'
p5176
S'99642-77-0'
p5177
sS's00009890'
p5178
S'13765-43-0'
p5179
sS's00009896'
p5180
S'20346-77-4'
p5181
sS's00009897'
p5182
S'7783-07-5'
p5183
sS's00009894'
p5184
S'7783-06-4'
p5185
sS's00002184'
p5186
S'545-06-2'
p5187
sS's00002887'
p5188
S'52670-37-8'
p5189
sS's00001416'
p5190
S'13029-08-8'
p5191
sS's00002509'
p5192
S'758-12-3'
p5193
sS's00002508'
p5194
S'4122-13-8'
p5195
sS's00010402'
p5196
S'12597-10-3'
p5197
sS's00002501'
p5198
S'13725-27-4'
p5199
sS's00002820'
p5200
S'593-74-8'
p5201
sS's00002502'
p5202
S'7291-10-3'
p5203
sS's00005360'
p5204
S'16839-97-7'
p5205
sS's00007178'
p5206
S'69436-45-9'
p5207
sS's00004769'
p5208
S'3013-02-3'
p5209
sS's00005363'
p5210
S'554-14-3'
p5211
sS's00005364'
p5212
S'616-44-4'
p5213
sS's00004760'
p5214
S'1187-84-4'
p5215
sS's00009907'
p5216
S'13283-31-3'
p5217
sS's00009053'
p5218
S'75-10-5'
p5219
sS's00001089'
p5220
S'434-90-2'
p5221
sS's00001088'
p5222
S'17786-31-1'
p5223
sS's00004561'
p5224
S'462-73-7'
p5225
sS's00004560'
p5226
S'111-44-4'
p5227
sS's00004563'
p5228
S'691-40-7'
p5229
sS's00004562'
p5230
S'686-63-5'
p5231
sS's00004565'
p5232
S'57413-82-8'
p5233
sS's00006129'
p5234
S'5750-00-5'
p5235
sS's00004567'
p5236
S'2358-38-5'
p5237
sS's00004566'
p5238
S'76913-35-4'
p5239
sS's00009092'
p5240
S'408497-95-0'
p5241
sS's00009090'
p5242
S'76392-49-9'
p5243
sS's00006128'
p5244
S'2855-08-5'
p5245
sS's00009096'
p5246
S'7318-78-7'
p5247
sS's00009097'
p5248
S'373-64-8'
p5249
sS's00009095'
p5250
S'17933-16-3'
p5251
sS's00009098'
p5252
S'13205-44-2'
p5253
sS's00009099'
p5254
S'79723-21-0'
p5255
sS's00002495'
p5256
S'28882-22-6'
p5257
sS's00009108'
p5258
S'74-87-3'
p5259
sS's00002211'
p5260
S'25604-71-1'
p5261
sS's00002210'
p5262
S'76-15-3'
p5263
sS's00002213'
p5264
S'58168-85-7'
p5265
sS's00002215'
p5266
S'1070-74-2'
p5267
sS's00002214'
p5268
S'38269-03-3'
p5269
sS's00002217'
p5270
S'33685-55-1'
p5271
sS's00002216'
p5272
S'108451-24-7'
p5273
sS's00002219'
p5274
S'4789-21-3'
p5275
sS's00002218'
p5276
S'563-93-9'
p5277
sS's00000857'
p5278
S'59163-69-8'
p5279
sS's00000856'
p5280
S'32313-85-2'
p5281
sS's00000853'
p5282
S'12109-10-3'
p5283
sS's00000852'
p5284
S'23026-73-5'
p5285
sS's00005566'
p5286
S'24356-00-1'
p5287
sS's00005567'
p5288
S'13280-00-7'
p5289
sS's00005564'
p5290
S'23010-00-6'
p5291
sS's00005565'
p5292
S'23010-02-8'
p5293
sS's00005562'
p5294
S'10524-08-0'
p5295
sS's00005563'
p5296
S'17773-64-7'
p5297
sS's00005560'
p5298
S'5166-35-8'
p5299
sS's00005561'
p5300
S'10523-96-3'
p5301
sS's00006127'
p5302
S'918-84-3'
p5303
sS's00005568'
p5304
S'26386-83-4'
p5305
sS's00005569'
p5306
S'105-48-6'
p5307
sS's00001348'
p5308
S'112-52-7'
p5309
sS's00001769'
p5310
S'19771-13-2'
p5311
sS's00002695'
p5312
S'661-21-2'
p5313
sS's00002694'
p5314
S'289-16-7'
p5315
sS's00001850'
p5316
S'68825-41-2'
p5317
sS's00002696'
p5318
S'67281-48-5'
p5319
sS's00002690'
p5320
S'6851-93-0'
p5321
sS's00002693'
p5322
S'594-03-6'
p5323
sS's00002692'
p5324
S'287-53-6'
p5325
sS's00008872'
p5326
S'353-59-3'
p5327
sS's00002342'
p5328
S'359-28-4'
p5329
sS's00010155'
p5330
S'21297-03-0'
p5331
sS's00006357'
p5332
S'19430-93-4'
p5333
sS's00010154'
p5334
S'10377-51-2'
p5335
sS's00010157'
p5336
S'15465-40-4'
p5337
sS's00002325'
p5338
S'156-59-2'
p5339
sS's00002324'
p5340
S'75-35-4'
p5341
sS's00004331'
p5342
S'68344-07-0'
p5343
sS's00010156'
p5344
S'58585-94-7'
p5345
sS's00002321'
p5346
S'50663-45-1'
p5347
sS's00002322'
p5348
S'57095-76-8'
p5349
sS's00010151'
p5350
S'7720-83-4'
p5351
sS's00002329'
p5352
S'431-06-1'
p5353
sS's00010241'
p5354
S'34166-62-6'
p5355
sS's00010153'
p5356
S'7681-11-0'
p5357
sS's00010152'
p5358
S'13986-26-0'
p5359
sS's00010249'
p5360
S'56971-19-8'
p5361
sS's00010248'
p5362
S'132297-46-2'
p5363
sS's00004332'
p5364
S'75156-31-9'
p5365
sS's00008879'
p5366
S'16499-24-4'
p5367
sS's00008878'
p5368
S'560-95-2'
p5369
sS's00008873'
p5370
S'4539-11-1'
p5371
sS's00010514'
p5372
S'207602-04-8'
p5373
sS's00008871'
p5374
S'75-62-7'
p5375
sS's00008870'
p5376
S'353-58-2'
p5377
sS's00008877'
p5378
S'506-68-3'
p5379
sS's00008876'
p5380
S'22632-20-8'
p5381
sS's00008875'
p5382
S'75-63-8'
p5383
sS's00009468'
p5384
S'10026-08-1'
p5385
sS's00006268'
p5386
S'994-30-9'
p5387
sS's00002038'
p5388
S'47182-04-7'
p5389
sS's00003886'
p5390
S'55979-29-8'
p5391
sS's00006264'
p5392
S'617-75-4'
p5393
sS's00006265'
p5394
S'97-94-9'
p5395
sS's00006266'
p5396
S'150-46-9'
p5397
sS's00006267'
p5398
S'4667-99-6'
p5399
sS's00010793'
p5400
S'12032-30-3'
p5401
sS's00003884'
p5402
S'2003-32-9'
p5403
sS's00010792'
p5404
S'12032-30-3'
p5405
sS's00003883'
p5406
S'385441-65-6'
p5407
sS's00000199'
p5408
S'7647-15-6'
p5409
sS's00003032'
p5410
S'505-14-6'
p5411
sS's00003745'
p5412
S'4985-58-4'
p5413
sS's00003746'
p5414
S'25783-06-6'
p5415
sS's00010790'
p5416
S'13776-74-4'
p5417
sS's00006516'
p5418
S'591-19-5'
p5419
sS's00003881'
p5420
S'385441-62-3'
p5421
sS's00003038'
p5422
S'12602-41-4'
p5423
sS's00003039'
p5424
S'109545-32-6'
p5425
sS's00006862'
p5426
S'1932-99-6'
p5427
sS's00006863'
p5428
S'36375-69-6'
p5429
sS's00006860'
p5430
S'2999-06-6'
p5431
sS's00006861'
p5432
S'65388-53-6'
p5433
sS's00006866'
p5434
S'461-73-4'
p5435
sS's00006867'
p5436
S'930-80-3'
p5437
sS's00006864'
p5438
S'36375-70-9'
p5439
sS's00006865'
p5440
S'110881-64-6'
p5441
sS's00006868'
p5442
S'30983-85-8'
p5443
sS's00006869'
p5444
S'57173-48-5'
p5445
sS's00008918'
p5446
S'68299-69-4'
p5447
sS's00008919'
p5448
S'2602-42-8'
p5449
sS's00000636'
p5450
S'464-41-5'
p5451
sS's00001896'
p5452
S'11079-26-8'
p5453
sS's00001897'
p5454
S'29949-74-4'
p5455
sS's00006198'
p5456
S'4225-87-0'
p5457
sS's00006199'
p5458
S'17336-76-4'
p5459
sS's00003559'
p5460
S'29761-90-8'
p5461
sS's00006192'
p5462
S'41821-91-4'
p5463
sS's00003558'
p5464
S'19468-99-6'
p5465
sS's00003444'
p5466
S'96-12-8'
p5467
sS's00005692'
p5468
S'6586-85-2'
p5469
sS's00003922'
p5470
S'53952-09-3'
p5471
sS's00006468'
p5472
S'371-41-5'
p5473
sS's00006469'
p5474
S'372-20-3'
p5475
sS's00006466'
p5476
S'356-27-4'
p5477
sS's00003107'
p5478
S'3114-46-3'
p5479
sS's00006464'
p5480
S'368-47-8'
p5481
sS's00006465'
p5482
S'356-23-0'
p5483
sS's00006462'
p5484
S'42463-83-2'
p5485
sS's00006463'
p5486
S'462-06-6'
p5487
sS's00006460'
p5488
S'1120-89-4'
p5489
sS's00006461'
p5490
S'18164-03-9'
p5491
sS's00003638'
p5492
S'5684-29-7'
p5493
sS's00003639'
p5494
S'13153-11-2'
p5495
sS's00000101'
p5496
S'77965-53-8'
p5497
sS's00000100'
p5498
S'13517-10-7'
p5499
sS's00004473'
p5500
S'1550-49-8'
p5501
sS's00000106'
p5502
S'14832-97-4'
p5503
sS's00007337'
p5504
S'95-46-5'
p5505
sS's00000104'
p5506
S'29750-36-5'
p5507
sS's00007339'
p5508
S'106-38-7'
p5509
sS's00007338'
p5510
S'100-39-0'
p5511
sS's00000109'
p5512
S'10361-37-2'
p5513
sS's00000108'
p5514
S'14832-99-6'
p5515
sS's00003637'
p5516
S'1534-08-3'
p5517
sS's00005693'
p5518
S'83168-65-4'
p5519
sS's00009618'
p5520
S'13587-52-5'
p5521
sS's00009619'
p5522
S'14014-06-3'
p5523
sS's00008961'
p5524
S'865-49-6'
p5525
sS's00009201'
p5526
S'20156-50-7'
p5527
sS's00004824'
p5528
S'55949-54-7'
p5529
sS's00004825'
p5530
S'2378-02-1'
p5531
sS's00003942'
p5532
S'692-50-2'
p5533
sS's00006992'
p5534
S'6092-54-2'
p5535
sS's00004821'
p5536
S'375-02-0'
p5537
sS's00006990'
p5538
S'84226-36-8'
p5539
sS's00006991'
p5540
S'762-22-1'
p5541
sS's00000042'
p5542
S'14457-64-8'
p5543
sS's00004828'
p5544
S'19259-11-1'
p5545
sS's00004829'
p5546
S'12603-31-5'
p5547
sS's00009206'
p5548
S'68355-44-2'
p5549
sS's00006682'
p5550
S'90827-60-4'
p5551
sS's00006683'
p5552
S'90827-61-5'
p5553
sS's00006680'
p5554
S'77471-71-7'
p5555
sS's00006681'
p5556
S'90827-59-1'
p5557
sS's00006686'
p5558
S'2875-92-5'
p5559
sS's00006337'
p5560
S'634-90-2'
p5561
sS's00006684'
p5562
S'90827-62-6'
p5563
sS's00009204'
p5564
S'78800-76-7'
p5565
sS's00004471'
p5566
S'675-56-9'
p5567
sS's00003943'
p5568
S'697-11-0'
p5569
sS's00004916'
p5570
S'29704-02-7'
p5571
sS's00002920'
p5572
S'134153-49-4'
p5573
sS's00004915'
p5574
S'13461-16-0'
p5575
sS's00000216'
p5576
S'313-72-4'
p5577
sS's00010539'
p5578
S'207602-02-6'
p5579
sS's00000214'
p5580
S'16416-29-8'
p5581
sS's00003928'
p5582
S'7582-04-9'
p5583
sS's00003929'
p5584
S'19170-96-8'
p5585
sS's00007212'
p5586
S'623-00-7'
p5587
sS's00000210'
p5588
S'19439-14-6'
p5589
sS's00003924'
p5590
S'58207-38-8'
p5591
sS's00003925'
p5592
S'56110-59-9'
p5593
sS's00003250'
p5594
S'930-35-8'
p5595
sS's00003921'
p5596
S'375-34-8'
p5597
sS's00004470'
p5598
S'75180-03-9'
p5599
sS's00003923'
p5600
S'377-41-3'
p5601
sS's00004851'
p5602
S'72408-79-8'
p5603
sS's00004254'
p5604
S'383-84-6'
p5605
sS's00004850'
p5606
S'53952-10-6'
p5607
sS's00004910'
p5608
S'4168-08-5'
p5609
sS's00008043'
p5610
S'28623-31-6'
p5611
sS's00008040'
p5612
S'14418-26-9'
p5613
sS's00008041'
p5614
S'15199-22-1'
p5615
sS's00000691'
p5616
S'86596-79-4'
p5617
sS's00000695'
p5618
S'84449-09-2'
p5619
sS's00000694'
p5620
S'55849-06-4'
p5621
sS's00008763'
p5622
S'7499-56-1'
p5623
sS's00000699'
p5624
S'29707-60-6'
p5625
sS's00000698'
p5626
S'1002-70-6'
p5627
sS's00004477'
p5628
S'33574-02-6'
p5629
sS's00009025'
p5630
S'119437-62-6'
p5631
sS's00001075'
p5632
S'72791-63-0'
p5633
sS's00001076'
p5634
S'76293-37-3'
p5635
sS's00001077'
p5636
S'80992-92-3'
p5637
sS's00004590'
p5638
S'120-79-6'
p5639
sS's00008761'
p5640
S'3445-76-9'
p5641
sS's00008260'
p5642
S'3845-54-3'
p5643
sS's00001073'
p5644
S'204-14-8'
p5645
sS's00000073'
p5646
S'12408-82-1'
p5647
sS's00000072'
p5648
S'12408-81-0'
p5649
sS's00000071'
p5650
S'12187-09-6'
p5651
sS's00008760'
p5652
S'10095-83-7'
p5653
sS's00001078'
p5654
S'80992-93-4'
p5655
sS's00008857'
p5656
S'139359-32-3'
p5657
sS's00000075'
p5658
S'12429-32-2'
p5659
sS's00000074'
p5660
S'12044-80-3'
p5661
sS's00000510'
p5662
S'2943-20-6'
p5663
sS's00004356'
p5664
S'79208-64-3'
p5665
sS's00009798'
p5666
S'12065-10-0'
p5667
sS's00000522'
p5668
S'1833-28-9'
p5669
sS's00000511'
p5670
S'78805-16-0'
p5671
sS's00009795'
p5672
S'13450-95-8'
p5673
sS's00009271'
p5674
S'73761-31-6'
p5675
sS's00009797'
p5676
S'12025-32-0'
p5677
sS's00009796'
p5678
S'20619-16-3'
p5679
sS's00009791'
p5680
S'12134-74-6'
p5681
sS's00009790'
p5682
S'12024-77-0'
p5683
sS's00009793'
p5684
S'12596-05-3'
p5685
sS's00009417'
p5686
S'12292-23-8'
p5687
sS's00003810'
p5688
S'16029-98-4'
p5689
sS's00003811'
p5690
S'3385-78-2'
p5691
sS's00000112'
p5692
S'13718-50-8'
p5693
sS's00009409'
p5694
S'7786-30-3'
p5695
sS's00009408'
p5696
S'12345-57-2'
p5697
sS's00010409'
p5698
S'12166-27-7'
p5699
sS's00010408'
p5700
S'12039-07-5'
p5701
sS's00010407'
p5702
S'1314-95-0'
p5703
sS's00009404'
p5704
S'7758-94-3'
p5705
sS's00009407'
p5706
S'12258-97-8'
p5707
sS's00010404'
p5708
S'21459-04-1'
p5709
sS's00009401'
p5710
S'1344-67-8'
p5711
sS's00009400'
p5712
S'12258-95-6'
p5713
sS's00009403'
p5714
S'17417-38-8'
p5715
sS's00010400'
p5716
S'12597-03-4'
p5717
sS's00003489'
p5718
S'503-09-3'
p5719
sS's00008769'
p5720
S'402-24-4'
p5721
sS's00001678'
p5722
S'1316-98-9'
p5723
sS's00004475'
p5724
S'459-72-3'
p5725
sS's00001677'
p5726
S'1273-97-8'
p5727
sS's00000517'
p5728
S'7314-85-4'
p5729
sS's00004688'
p5730
S'51102-74-0'
p5731
sS's00009224'
p5732
S'75-75-2'
p5733
sS's00008318'
p5734
S'37808-75-6'
p5735
sS's00008319'
p5736
S'104-82-5'
p5737
sS's00005699'
p5738
S'355-68-0'
p5739
sS's00009222'
p5740
S'17696-73-0'
p5741
sS's00004680'
p5742
S'68860-48-0'
p5743
sS's00008859'
p5744
S'138853-33-5'
p5745
sS's00004682'
p5746
S'505-20-4'
p5747
sS's00004683'
p5748
S'505-23-7'
p5749
sS's00008316'
p5750
S'576-22-7'
p5751
sS's00008317'
p5752
S'585-71-7'
p5753
sS's00008314'
p5754
S'103-63-9'
p5755
sS's00008315'
p5756
S'104-81-4'
p5757
sS's00010748'
p5758
S'158965-68-5'
p5759
sS's00001417'
p5760
S'16605-91-7'
p5761
sS's00001414'
p5762
S'2974-90-5'
p5763
sS's00001415'
p5764
S'2974-92-7'
p5765
sS's00001412'
p5766
S'2050-67-1'
p5767
sS's00001413'
p5768
S'2050-68-2'
p5769
sS's00005177'
p5770
S'98139-68-5'
p5771
sS's00005176'
p5772
S'1912-32-9'
p5773
sS's00010740'
p5774
S'61027-57-4'
p5775
sS's00010741'
p5776
S'61027-57-4'
p5777
sS's00010742'
p5778
S'61027-57-4'
p5779
sS's00010743'
p5780
S'1309-38-2'
p5781
sS's00010744'
p5782
S'1309-38-2'
p5783
sS's00010745'
p5784
S'1309-38-2'
p5785
sS's00010746'
p5786
S'25884-11-1'
p5787
sS's00010747'
p5788
S'57147-09-8'
p5789
sS's00005889'
p5790
S'2969-81-5'
p5791
sS's00005888'
p5792
S'108-85-0'
p5793
sS's00008261'
p5794
S'39160-18-4'
p5795
sS's00010412'
p5796
S'32679-33-7'
p5797
sS's00009311'
p5798
S'75-47-8'
p5799
sS's00009310'
p5800
S'16520-12-0'
p5801
sS's00010387'
p5802
S'7440-06-4'
p5803
sS's00009139'
p5804
S'753-58-2'
p5805
sS's00009138'
p5806
S'593-53-3'
p5807
sS's00000070'
p5808
S'7440-57-5'
p5809
sS's00002518'
p5810
S'121832-04-0'
p5811
sS's00009131'
p5812
S'1066-43-9'
p5813
sS's00009130'
p5814
S'10536-65-9'
p5815
sS's00002514'
p5816
S'24314-99-6'
p5817
sS's00009132'
p5818
S'51375-79-2'
p5819
sS's00002512'
p5820
S'59263-87-5'
p5821
sS's00009134'
p5822
S'4206-31-9'
p5823
sS's00009137'
p5824
S'92386-02-2'
p5825
sS's00004450'
p5826
S'2211-70-3'
p5827
sS's00009498'
p5828
S'7790-91-2'
p5829
sS's00010473'
p5830
S'54250-40-7'
p5831
sS's00009499'
p5832
S'14049-36-6'
p5833
sS's00004770'
p5834
S'15459-87-7'
p5835
sS's00004771'
p5836
S'38662-39-4'
p5837
sS's00005082'
p5838
S'59-51-8'
p5839
sS's00001092'
p5840
S'1554-93-4'
p5841
sS's00001093'
p5842
S'17685-52-8'
p5843
sS's00001090'
p5844
S'32937-02-3'
p5845
sS's00001091'
p5846
S'311-89-7'
p5847
sS's00004576'
p5848
S'18338-56-2'
p5849
sS's00004577'
p5850
S'54389-19-4'
p5851
sS's00004574'
p5852
S'16063-24-4'
p5853
sS's00004575'
p5854
S'16063-39-1'
p5855
sS's00004479'
p5856
S'56905-18-1'
p5857
sS's00005240'
p5858
S'1120-87-2'
p5859
sS's00009510'
p5860
S'21110-21-4'
p5861
sS's00005659'
p5862
S'2344-14-1'
p5863
sS's00009799'
p5864
S'12025-36-4'
p5865
sS's00008874'
p5866
S'28882-09-9'
p5867
sS's00002731'
p5868
S'371-62-0'
p5869
sS's00003211'
p5870
S'102687-65-0'
p5871
sS's00010546'
p5872
S'2936-44-9'
p5873
sS's00006392'
p5874
S'121-73-3'
p5875
sS's00001404'
p5876
S'38444-88-1'
p5877
sS's00002202'
p5878
S'79-38-9'
p5879
sS's00002203'
p5880
S'354-32-5'
p5881
sS's00005559'
p5882
S'2190-48-9'
p5883
sS's00005558'
p5884
S'930-28-9'
p5885
sS's00002206'
p5886
S'38000-88-3'
p5887
sS's00002207'
p5888
S'147703-32-0'
p5889
sS's00000848'
p5890
S'12129-29-2'
p5891
sS's00002205'
p5892
S'4539-13-3'
p5893
sS's00002208'
p5894
S'147703-36-4'
p5895
sS's00002209'
p5896
S'147703-40-0'
p5897
sS's00005225'
p5898
S'112097-18-4'
p5899
sS's00005224'
p5900
S'40331-44-0'
p5901
sS's00005226'
p5902
S'87-42-3'
p5903
sS's00005799'
p5904
S'49653-47-6'
p5905
sS's00005798'
p5906
S'24955-63-3'
p5907
sS's00005791'
p5908
S'83561-08-4'
p5909
sS's00006393'
p5910
S'13165-68-9'
p5911
sS's00005792'
p5912
S'822-86-6'
p5913
sS's00005795'
p5914
S'16749-11-4'
p5915
sS's00005794'
p5916
S'10498-35-8'
p5917
sS's00005797'
p5918
S'24955-62-2'
p5919
sS's00005796'
p5920
S'16890-91-8'
p5921
sS's00002688'
p5922
S'420-12-2'
p5923
sS's00009458'
p5924
S'7705-07-9'
p5925
sS's00002686'
p5926
S'2042-42-4'
p5927
sS's00002687'
p5928
S'58816-63-0'
p5929
sS's00002684'
p5930
S'507-09-5'
p5931
sS's00002685'
p5932
S'7117-41-1'
p5933
sS's00004255'
p5934
S'406-39-3'
p5935
sS's00002683'
p5936
S'21511-46-6'
p5937
sS's00002681'
p5938
S'60743-10-4'
p5939
sS's00009364'
p5940
S'1603-84-5'
p5941
sS's00000281'
p5942
S'6948-02-3'
p5943
sS's00000282'
p5944
S'19759-23-0'
p5945
sS's00000283'
p5946
S'1796-69-6'
p5947
sS's00009459'
p5948
S'53664-01-0'
p5949
sS's00009116'
p5950
S'75-79-6'
p5951
sS's00002944'
p5952
S'79-36-7'
p5953
sS's00003264'
p5954
S'3223-70-9'
p5955
sS's00007574'
p5956
S'36375-65-2'
p5957
sS's00002336'
p5958
S'79-02-7'
p5959
sS's00002337'
p5960
S'79-04-9'
p5961
sS's00002335'
p5962
S'134469-98-0'
p5963
sS's00002332'
p5964
S'1842-05-3'
p5965
sS's00009362'
p5966
S'463-58-1'
p5967
sS's00002330'
p5968
S'471-43-2'
p5969
sS's00002331'
p5970
S'1649-08-7'
p5971
sS's00009363'
p5972
S'81202-14-4'
p5973
sS's00003445'
p5974
S'598-31-2'
p5975
sS's00002338'
p5976
S'79-43-6'
p5977
sS's00002339'
p5978
S'20394-27-8'
p5979
sS's00008543'
p5980
S'125294-45-3'
p5981
sS's00010254'
p5982
S'25583-20-4'
p5983
sS's00010255'
p5984
S'25658-42-8'
p5985
sS's00010252'
p5986
S'12033-59-9'
p5987
sS's00010253'
p5988
S'12033-60-2'
p5989
sS's00010250'
p5990
S'17739-47-8'
p5991
sS's00008542'
p5992
S'92688-80-7'
p5993
sS's00003191'
p5994
S'15279-03-5'
p5995
sS's00004105'
p5996
S'124330-23-0'
p5997
sS's00007573'
p5998
S'36375-64-1'
p5999
sS's00010258'
p6000
S'7440-23-5'
p6001
sS's00010259'
p6002
S'25681-79-2'
p6003
sS's00003952'
p6004
S'375-00-8'
p6005
sS's00003441'
p6006
S'590-15-8'
p6007
sS's00008547'
p6008
S'20020-27-3'
p6009
sS's00003192'
p6010
S'20478-15-3'
p6011
sS's00000039'
p6012
S'29977-41-1'
p6013
sS's00003954'
p6014
S'115-25-3'
p6015
sS's00001418'
p6016
S'25512-42-9'
p6017
sS's00008868'
p6018
S'558-13-4'
p6019
sS's00008869'
p6020
S'16547-92-5'
p6021
sS's00008864'
p6022
S'75-61-6'
p6023
sS's00008865'
p6024
S'593-95-3'
p6025
sS's00008866'
p6026
S'4471-18-5'
p6027
sS's00008867'
p6028
S'353-54-8'
p6029
sS's00008860'
p6030
S'3889-77-8'
p6031
sS's00008861'
p6032
S'34902-22-2'
p6033
sS's00008862'
p6034
S'594-18-3'
p6035
sS's00008863'
p6036
S'41895-46-9'
p6037
sS's00008078'
p6038
S'597-63-7'
p6039
sS's00002024'
p6040
S'795-42-6'
p6041
sS's00002025'
p6042
S'15364-55-3'
p6043
sS's00009570'
p6044
S'24774-39-8'
p6045
sS's00009530'
p6046
S'14989-30-1'
p6047
sS's00009018'
p6048
S'16519-97-4'
p6049
sS's00006527'
p6050
S'29771-80-0'
p6051
sS's00003006'
p6052
S'4168-07-4'
p6053
sS's00003005'
p6054
S'147703-25-1'
p6055
sS's00003004'
p6056
S'3822-68-2'
p6057
sS's00003003'
p6058
S'354-33-6'
p6059
sS's00003002'
p6060
S'145252-03-5'
p6061
sS's00003001'
p6062
S'134469-97-9'
p6063
sS's00003000'
p6064
S'140872-97-5'
p6065
sS's00006529'
p6066
S'51494-70-3'
p6067
sS's00006528'
p6068
S'51494-69-0'
p6069
sS's00006856'
p6070
S'114646-24-1'
p6071
sS's00006855'
p6072
S'114646-20-7'
p6073
sS's00006854'
p6074
S'1551-27-5'
p6075
sS's00006859'
p6076
S'765-91-3'
p6077
sS's00006858'
p6078
S'13474-70-9'
p6079
sS's00006319'
p6080
S'6607-30-3'
p6081
sS's00009541'
p6082
S'7791-11-9'
p6083
sS's00006320'
p6084
S'3732-82-9'
p6085
sS's00006453'
p6086
S'108-43-0'
p6087
sS's00006452'
p6088
S'106-48-9'
p6089
sS's00003131'
p6090
S'666-52-4'
p6091
sS's00003130'
p6092
S'115474-09-4'
p6093
sS's00003137'
p6094
S'6922-94-7'
p6095
sS's00003136'
p6096
S'2875-94-7'
p6097
sS's00006455'
p6098
S'106-54-7'
p6099
sS's00003134'
p6100
S'78334-72-2'
p6101
sS's00006329'
p6102
S'661-69-8'
p6103
sS's00003139'
p6104
S'675-14-9'
p6105
sS's00003138'
p6106
S'433-43-2'
p6107
sS's00003468'
p6108
S'1117-90-4'
p6109
sS's00008172'
p6110
S'270-82-6'
p6111
sS's00000114'
p6112
S'7440-41-7'
p6113
sS's00000115'
p6114
S'12009-99-3'
p6115
sS's00000116'
p6116
S'70478-90-9'
p6117
sS's00000117'
p6118
S'61279-73-0'
p6119
sS's00000110'
p6120
S'13966-70-6'
p6121
sS's00007327'
p6122
S'6725-34-4'
p6123
sS's00000444'
p6124
S'7205-66-5'
p6125
sS's00000113'
p6126
S'1304-28-5'
p6127
sS's00003645'
p6128
S'1822-74-8'
p6129
sS's00003644'
p6130
S'1072-43-1'
p6131
sS's00003647'
p6132
S'16696-81-4'
p6133
sS's00003646'
p6134
S'4756-05-2'
p6135
sS's00000118'
p6136
S'61279-74-1'
p6137
sS's00000119'
p6138
S'61279-75-2'
p6139
sS's00003643'
p6140
S'870-23-5'
p6141
sS's00003642'
p6142
S'287-27-4'
p6143
sS's00002326'
p6144
S'156-60-5'
p6145
sS's00009226'
p6146
S'22322-29-8'
p6147
sS's00009730'
p6148
S'15179-32-5'
p6149
sS's00003358'
p6150
S'563-58-6'
p6151
sS's00003482'
p6152
S'25448-69-5'
p6153
sS's00003481'
p6154
S'153619-91-1'
p6155
sS's00003487'
p6156
S'54389-20-7'
p6157
sS's00002640'
p6158
S'624-73-7'
p6159
sS's00003485'
p6160
S'421-07-8'
p6161
sS's00001786'
p6162
S'1272-23-7'
p6163
sS's00006409'
p6164
S'368-48-9'
p6165
sS's00009382'
p6166
S'1305-79-9'
p6167
sS's00008262'
p6168
S'54439-95-1'
p6169
sS's00009144'
p6170
S'137848-37-4'
p6171
sS's00009383'
p6172
S'63172-08-7'
p6173
sS's00000102'
p6174
S'12505-77-0'
p6175
sS's00000200'
p6176
S'15656-19-6'
p6177
sS's00000201'
p6178
S'21255-83-4'
p6179
sS's00000202'
p6180
S'15576-47-3'
p6181
sS's00000203'
p6182
S'7789-39-1'
p6183
sS's00000204'
p6184
S'74140-67-3'
p6185
sS's00000205'
p6186
S'14791-57-2'
p6187
sS's00000206'
p6188
S'14519-13-2'
p6189
sS's00000207'
p6190
S'7789-40-4'
p6191
sS's00006400'
p6192
S'73385-31-6'
p6193
sS's00001122'
p6194
S'75574-99-1'
p6195
sS's00010528'
p6196
S'81475-21-0'
p6197
sS's00004686'
p6198
S'764-45-4'
p6199
sS's00003269'
p6200
S'21400-25-9'
p6201
sS's00003268'
p6202
S'2233-00-3'
p6203
sS's00003267'
p6204
S'7125-99-7'
p6205
sS's00010526'
p6206
S'90584-32-0'
p6207
sS's00004687'
p6208
S'870-73-5'
p6209
sS's00003263'
p6210
S'624-65-7'
p6211
sS's00006402'
p6212
S'13122-33-3'
p6213
sS's00010522'
p6214
S'2311-14-0'
p6215
sS's00010523'
p6216
S'84658-62-8'
p6217
sS's00009812'
p6218
S'14644-45-2'
p6219
sS's00001537'
p6220
S'84507-46-0'
p6221
sS's00006403'
p6222
S'13122-34-4'
p6223
sS's00008076'
p6224
S'819-19-2'
p6225
sS's00003799'
p6226
S'18026-87-4'
p6227
sS's00003798'
p6228
S'13528-88-6'
p6229
sS's00003797'
p6230
S'1066-44-0'
p6231
sS's00003796'
p6232
S'2857-97-8'
p6233
sS's00003795'
p6234
S'6148-48-7'
p6235
sS's00003794'
p6236
S'593-91-9'
p6237
sS's00003793'
p6238
S'997-49-9'
p6239
sS's00003792'
p6240
S'121-43-7'
p6241
sS's00003791'
p6242
S'1516-55-8'
p6243
sS's00003790'
p6244
S'593-90-8'
p6245
sS's00006406'
p6246
S'367-11-3'
p6247
sS's00001182'
p6248
S'1273-89-8'
p6249
sS's00008099'
p6250
S'653-34-9'
p6251
sS's00008098'
p6252
S'25291-17-2'
p6253
sS's00000069'
p6254
S'26754-98-3'
p6255
sS's00007213'
p6256
S'2042-37-7'
p6257
sS's00000064'
p6258
S'7784-35-2'
p6259
sS's00008090'
p6260
S'28247-29-2'
p6261
sS's00008093'
p6262
S'100207-68-9'
p6263
sS's00001411'
p6264
S'1601-98-5'
p6265
sS's00000060'
p6266
S'7784-33-0'
p6267
sS's00000061'
p6268
S'41996-37-6'
p6269
sS's00000062'
p6270
S'7784-34-1'
p6271
sS's00000063'
p6272
S'14525-25-8'
p6273
sS's00001795'
p6274
S'40024-76-8'
p6275
sS's00005179'
p6276
S'1878-18-8'
p6277
sS's00001796'
p6278
S'2959-75-3'
p6279
sS's00001791'
p6280
S'1295-20-1'
p6281
sS's00001790'
p6282
S'1272-26-0'
p6283
sS's00009788'
p6284
S'12024-08-7'
p6285
sS's00005178'
p6286
S'110-66-7'
p6287
sS's00009786'
p6288
S'15605-68-2'
p6289
sS's00009787'
p6290
S'13450-91-4'
p6291
sS's00009784'
p6292
S'76797-74-5'
p6293
sS's00009785'
p6294
S'7440-55-3'
p6295
sS's00009782'
p6296
S'12411-15-3'
p6297
sS's00009783'
p6298
S'11088-95-2'
p6299
sS's00009780'
p6300
S'7783-86-0'
p6301
sS's00009781'
p6302
S'1345-25-1'
p6303
sS's00003865'
p6304
S'431-89-0'
p6305
sS's00010411'
p6306
S'7440-36-0'
p6307
sS's00003867'
p6308
S'2356-62-9'
p6309
sS's00003866'
p6310
S'2252-84-8'
p6311
sS's00010414'
p6312
S'7440-20-2'
p6313
sS's00010415'
p6314
S'7782-49-2'
p6315
sS's00009418'
p6316
S'105206-44-8'
p6317
sS's00003862'
p6318
S'69093-46-5'
p6319
sS's00010418'
p6320
S'12067-42-4'
p6321
sS's00010419'
p6322
S'12067-44-6'
p6323
sS's00009414'
p6324
S'12258-98-9'
p6325
sS's00009415'
p6326
S'7718-54-9'
p6327
sS's00009412'
p6328
S'25938-83-4'
p6329
sS's00003868'
p6330
S'73563-15-2'
p6331
sS's00009410'
p6332
S'7773-01-5'
p6333
sS's00009411'
p6334
S'13637-68-8'
p6335
sS's00004178'
p6336
S'41601-60-9'
p6337
sS's00005688'
p6338
S'65455-53-0'
p6339
sS's00003222'
p6340
S'3899-71-6'
p6341
sS's00001419'
p6342
S'25569-80-6'
p6343
sS's00009147'
p6344
S'99601-83-9'
p6345
sS's00003221'
p6346
S'754-12-1'
p6347
sS's00009236'
p6348
S'593-52-2'
p6349
sS's00009237'
p6350
S'993-00-0'
p6351
sS's00004149'
p6352
S'53006-35-2'
p6353
sS's00009235'
p6354
S'141223-15-6'
p6355
sS's00009232'
p6356
S'6725-64-0'
p6357
sS's00009230'
p6358
S'141223-21-4'
p6359
sS's00009231'
p6360
S'74-93-1'
p6361
sS's00004143'
p6362
S'558-61-2'
p6363
sS's00001422'
p6364
S'34883-39-1'
p6365
sS's00001421'
p6366
S'33284-50-3'
p6367
sS's00004140'
p6368
S'1003-09-4'
p6369
sS's00001427'
p6370
S'398-23-2'
p6371
sS's00004146'
p6372
S'19064-67-6'
p6373
sS's00001425'
p6374
S'388-82-9'
p6375
sS's00004144'
p6376
S'112097-17-3'
p6377
sS's00001835'
p6378
S'42858-85-5'
p6379
sS's00010739'
p6380
S'1317-60-8'
p6381
sS's00010738'
p6382
S'1317-60-8'
p6383
sS's00010735'
p6384
S'1309-36-0'
p6385
sS's00010734'
p6386
S'7720-78-7'
p6387
sS's00010737'
p6388
S'16480-60-7'
p6389
sS's00000122'
p6390
S'7787-47-5'
p6391
sS's00010731'
p6392
S'1317-96-0'
p6393
sS's00010730'
p6394
S'1317-96-0'
p6395
sS's00010733'
p6396
S'1317-96-0'
p6397
sS's00010732'
p6398
S'1317-96-0'
p6399
sS's00008204'
p6400
S'1193-80-2'
p6401
sS's00002793'
p6402
S'677-43-0'
p6403
sS's00005898'
p6404
S'107-59-5'
p6405
sS's00005899'
p6406
S'3153-36-4'
p6407
sS's00005896'
p6408
S'15943-43-8'
p6409
sS's00005897'
p6410
S'24371-94-6'
p6411
sS's00005894'
p6412
S'6734-98-1'
p6413
sS's00005895'
p6414
S'7712-60-9'
p6415
sS's00005892'
p6416
S'542-18-7'
p6417
sS's00005893'
p6418
S'928-89-2'
p6419
sS's00005890'
p6420
S'5292-43-3'
p6421
sS's00005891'
p6422
S'5454-83-1'
p6423
sS's00009302'
p6424
S'143645-30-1'
p6425
sS's00009303'
p6426
S'75-46-7'
p6427
sS's00008259'
p6428
S'1861-01-4'
p6429
sS's00008258'
p6430
S'107079-57-2'
p6431
sS's00009306'
p6432
S'1493-13-6'
p6433
sS's00009307'
p6434
S'24708-53-0'
p6435
sS's00009304'
p6436
S'1493-11-4'
p6437
sS's00009305'
p6438
S'16156-36-8'
p6439
sS's00008253'
p6440
S'20488-10-2'
p6441
sS's00008252'
p6442
S'623-24-5'
p6443
sS's00009308'
p6444
S'1493-02-3'
p6445
sS's00000295'
p6446
S'1796-56-1'
p6447
sS's00008257'
p6448
S'106682-40-0'
p6449
sS's00008256'
p6450
S'28192-05-4'
p6451
sS's00008255'
p6452
S'456-16-6'
p6453
sS's00008254'
p6454
S'20001-65-4'
p6455
sS's00002523'
p6456
S'420-46-2'
p6457
sS's00009128'
p6458
S'2614-35-9'
p6459
sS's00002527'
p6460
S'421-14-7'
p6461
sS's00002526'
p6462
S'75-89-8'
p6463
sS's00002524'
p6464
S'430-66-0'
p6465
sS's00009123'
p6466
S'124-63-0'
p6467
sS's00002529'
p6468
S'557-99-3'
p6469
sS's00009121'
p6470
S'138434-09-0'
p6471
sS's00009126'
p6472
S'77971-32-5'
p6473
sS's00009127'
p6474
S'676-49-3'
p6475
sS's00009124'
p6476
S'5795-20-0'
p6477
sS's00009125'
p6478
S'5813-48-9'
p6479
sS's00005307'
p6480
S'2637-34-5'
p6481
sS's00004104'
p6482
S'234750-71-1'
p6483
sS's00001335'
p6484
S'34039-83-3'
p6485
sS's00010088'
p6486
S'13817-04-4'
p6487
sS's00005308'
p6488
S'4556-23-4'
p6489
sS's00005309'
p6490
S'16133-26-9'
p6491
sS's00008381'
p6492
S'24167-56-4'
p6493
sS's00004549'
p6494
S'62168-25-6'
p6495
sS's00004548'
p6496
S'5780-13-2'
p6497
sS's00004547'
p6498
S'598-71-0'
p6499
sS's00004546'
p6500
S'533-98-2'
p6501
sS's00004545'
p6502
S'110-52-1'
p6503
sS's00004544'
p6504
S'107-80-2'
p6505
sS's00004543'
p6506
S'83561-14-2'
p6507
sS's00009447'
p6508
S'59217-69-5'
p6509
sS's00004541'
p6510
S'38816-82-9'
p6511
sS's00004571'
p6512
S'115523-08-5'
p6513
sS's00004177'
p6514
S'1653-19-6'
p6515
sS's00002787'
p6516
S'1803-36-7'
p6517
sS's00002786'
p6518
S'5158-50-9'
p6519
sS's00002785'
p6520
S'20693-67-8'
p6521
sS's00002783'
p6522
S'151358-34-8'
p6523
sS's00002782'
p6524
S'80641-42-5'
p6525
sS's00002781'
p6526
S'88053-53-6'
p6527
sS's00002780'
p6528
S'31533-72-9'
p6529
sS's00007747'
p6530
S'15020-15-2'
p6531
sS's00002788'
p6532
S'1113-31-1'
p6533
sS's00002237'
p6534
S'6552-57-4'
p6535
sS's00002236'
p6536
S'1632-89-9'
p6537
sS's00005238'
p6538
S'109-04-6'
p6539
sS's00005239'
p6540
S'626-55-1'
p6541
sS's00005548'
p6542
S'2648-71-7'
p6543
sS's00005549'
p6544
S'565-74-2'
p6545
sS's00002230'
p6546
S'22581-63-1'
p6547
sS's00005232'
p6548
S'993-95-3'
p6549
sS's00005546'
p6550
S'137-43-9'
p6551
sS's00005547'
p6552
S'31950-56-8'
p6553
sS's00005234'
p6554
S'1003-31-2'
p6555
sS's00002238'
p6556
S'1186-52-3'
p6557
sS's00010397'
p6558
S'7440-18-8'
p6559
sS's00010396'
p6560
S'10043-92-2'
p6561
sS's00010395'
p6562
S'12600-90-7'
p6563
sS's00010394'
p6564
S'12596-98-4'
p6565
sS's00010393'
p6566
S'7440-16-6'
p6567
sS's00010392'
p6568
S'7440-15-5'
p6569
sS's00010391'
p6570
S'25681-81-6'
p6571
sS's00010390'
p6572
S'7440-17-7'
p6573
sS's00005786'
p6574
S'7429-37-0'
p6575
sS's00005787'
p6576
S'19246-38-9'
p6577
sS's00010399'
p6578
S'23550-45-0'
p6579
sS's00010398'
p6580
S'7704-34-9'
p6581
sS's00005324'
p6582
S'74636-32-1'
p6583
sS's00009225'
p6584
S'75-93-4'
p6585
sS's00002927'
p6586
S'306-83-2'
p6587
sS's00004802'
p6588
S'31121-06-9'
p6589
sS's00005361'
p6590
S'49675-88-9'
p6591
sS's00002309'
p6592
S'590-11-4'
p6593
sS's00002308'
p6594
S'101150-96-3'
p6595
sS's00002162'
p6596
S'598-88-9'
p6597
sS's00002303'
p6598
S'16986-24-6'
p6599
sS's00002923'
p6600
S'13245-54-0'
p6601
sS's00004442'
p6602
S'5445-17-0'
p6603
sS's00002655'
p6604
S'61160-51-8'
p6605
sS's00002304'
p6606
S'20644-12-6'
p6607
sS's00010269'
p6608
S'7440-00-8'
p6609
sS's00010268'
p6610
S'12034-57-0'
p6611
sS's00002921'
p6612
S'430-58-0'
p6613
sS's00010263'
p6614
S'12034-12-7'
p6615
sS's00010262'
p6616
S'12401-86-4'
p6617
sS's00010260'
p6618
S'1313-59-3'
p6619
sS's00010267'
p6620
S'7440-03-1'
p6621
sS's00010266'
p6622
S'12333-61-8'
p6623
sS's00010265'
p6624
S'12058-54-7'
p6625
sS's00010264'
p6626
S'39422-71-4'
p6627
sS's00002516'
p6628
S'57449-71-5'
p6629
sS's00002517'
p6630
S'420-47-3'
p6631
sS's00010061'
p6632
S'14332-21-9'
p6633
sS's00010060'
p6634
S'10034-85-2'
p6635
sS's00010063'
p6636
S'1310-58-3'
p6637
sS's00010062'
p6638
S'7693-26-7'
p6639
sS's00010065'
p6640
S'1310-65-2'
p6641
sS's00010064'
p6642
S'7580-67-8'
p6643
sS's00010067'
p6644
S'14452-76-7'
p6645
sS's00010066'
p6646
S'12141-11-6'
p6647
sS's00002515'
p6648
S'41290-94-2'
p6649
sS's00002368'
p6650
S'1517-53-9'
p6651
sS's00006126'
p6652
S'594-57-0'
p6653
sS's00008104'
p6654
S'402-31-3'
p6655
sS's00002513'
p6656
S'86492-26-4'
p6657
sS's00008891'
p6658
S'1587-41-3'
p6659
sS's00007366'
p6660
S'77483-13-7'
p6661
sS's00008892'
p6662
S'75-44-5'
p6663
sS's00008895'
p6664
S'3170-80-7'
p6665
sS's00002510'
p6666
S'23731-38-6'
p6667
sS's00010568'
p6668
S'871-33-0'
p6669
sS's00008896'
p6670
S'75-69-4'
p6671
sS's00008899'
p6672
S'70490-93-6'
p6673
sS's00008898'
p6674
S'76-06-2'
p6675
sS's00009136'
p6676
S'16978-68-0'
p6677
sS's00007365'
p6678
S'625-95-6'
p6679
sS's00009389'
p6680
S'7790-87-6'
p6681
sS's00002017'
p6682
S'32936-99-5'
p6683
sS's00007362'
p6684
S'615-37-2'
p6685
sS's00006200'
p6686
S'628-85-3'
p6687
sS's00006201'
p6688
S'1071-39-2'
p6689
sS's00010432'
p6690
S'10028-16-7'
p6691
sS's00010510'
p6692
S'777890-21-8'
p6693
sS's00003774'
p6694
S'5271-38-5'
p6695
sS's00003483'
p6696
S'21379-83-9'
p6697
sS's00007360'
p6698
S'352-70-5'
p6699
sS's00007361'
p6700
S'456-49-5'
p6701
sS's00005310'
p6702
S'73018-10-7'
p6703
sS's00003257'
p6704
S'106-96-7'
p6705
sS's00010405'
p6706
S'10544-50-0'
p6707
sS's00001219'
p6708
S'39333-52-3'
p6709
sS's00001121'
p6710
S'75574-98-0'
p6711
sS's00001150'
p6712
S'12129-68-9'
p6713
sS's00002618'
p6714
S'1859-09-2'
p6715
sS's00003124'
p6716
S'356535-04-1'
p6717
sS's00006445'
p6718
S'106-41-2'
p6719
sS's00006330'
p6720
S'36133-73-0'
p6721
sS's00006331'
p6722
S'999-97-3'
p6723
sS's00006336'
p6724
S'634-66-2'
p6725
sS's00006441'
p6726
S'873-51-8'
p6727
sS's00006442'
p6728
S'108-86-1'
p6729
sS's00006443'
p6730
S'1192-89-8'
p6731
sS's00006338'
p6732
S'87-87-6'
p6733
sS's00006339'
p6734
S'13122-41-3'
p6735
sS's00003128'
p6736
S'1517-52-8'
p6737
sS's00006449'
p6738
S'98-13-5'
p6739
sS's00004675'
p6740
S'3772-13-2'
p6741
sS's00003309'
p6742
S'422-05-9'
p6743
sS's00009279'
p6744
S'463-73-0'
p6745
sS's00004674'
p6746
S'3195-86-6'
p6747
sS's00003656'
p6748
S'356535-03-0'
p6749
sS's00003305'
p6750
S'679-86-7'
p6751
sS's00003654'
p6752
S'2314-48-9'
p6753
sS's00003655'
p6754
S'53904-29-3'
p6755
sS's00003652'
p6756
S'4829-04-3'
p6757
sS's00003653'
p6758
S'291-21-4'
p6759
sS's00003650'
p6760
S'557-22-2'
p6761
sS's00003651'
p6762
S'2168-84-5'
p6763
sS's00004676'
p6764
S'5954-71-2'
p6765
sS's00004671'
p6766
S'623-54-1'
p6767
sS's00003490'
p6768
S'556-56-9'
p6769
sS's00003491'
p6770
S'3019-04-3'
p6771
sS's00004670'
p6772
S'15980-15-1'
p6773
sS's00004673'
p6774
S'627-50-9'
p6775
sS's00000627'
p6776
S'875-06-9'
p6777
sS's00004672'
p6778
S'110-01-0'
p6779
sS's00010375'
p6780
S'12281-36-6'
p6781
sS's00006538'
p6782
S'141707-52-0'
p6783
sS's00006539'
p6784
S'64705-15-3'
p6785
sS's00007557'
p6786
S'27324-83-0'
p6787
sS's00004573'
p6788
S'819-46-5'
p6789
sS's00006530'
p6790
S'51494-71-4'
p6791
sS's00006531'
p6792
S'2652-64-4'
p6793
sS's00006532'
p6794
S'356-77-4'
p6795
sS's00006533'
p6796
S'2646-84-6'
p6797
sS's00006534'
p6798
S'348-54-9'
p6799
sS's00006535'
p6800
S'371-40-4'
p6801
sS's00003016'
p6802
S'87598-22-9'
p6803
sS's00006537'
p6804
S'84521-01-7'
p6805
sS's00010815'
p6806
S'15861-05-9'
p6807
sS's00006390'
p6808
S'625-98-9'
p6809
sS's00004207'
p6810
S'2001-93-6'
p6811
sS's00010401'
p6812
S'19269-85-3'
p6813
sS's00003143'
p6814
S'422-04-8'
p6815
sS's00000274'
p6816
S'1277-47-0'
p6817
sS's00007773'
p6818
S'92688-79-4'
p6819
sS's00000271'
p6820
S'70445-88-4'
p6821
sS's00003140'
p6822
S'461-68-7'
p6823
sS's00000273'
p6824
S'1287-13-4'
p6825
sS's00000272'
p6826
S'1294-74-2'
p6827
sS's00003273'
p6828
S'3083-23-6'
p6829
sS's00003274'
p6830
S'918-00-3'
p6831
sS's00003275'
p6832
S'53220-05-6'
p6833
sS's00003276'
p6834
S'112097-16-2'
p6835
sS's00000238'
p6836
S'1293-73-8'
p6837
sS's00008549'
p6838
S'622-63-9'
p6839
sS's00010758'
p6840
S'16904-65-7'
p6841
sS's00008066'
p6842
S'24411-61-8'
p6843
sS's00008067'
p6844
S'17336-77-5'
p6845
sS's00008060'
p6846
S'110-06-5'
p6847
sS's00008061'
p6848
S'629-45-8'
p6849
sS's00008062'
p6850
S'66737-21-1'
p6851
sS's00003787'
p6852
S'619325-94-9'
p6853
sS's00003788'
p6854
S'593-88-4'
p6855
sS's00003789'
p6856
S'6596-95-8'
p6857
sS's00006397'
p6858
S'110133-08-9'
p6859
sS's00002851'
p6860
S'540-63-6'
p6861
sS's00006783'
p6862
S'14040-11-0'
p6863
sS's00002850'
p6864
S'75-18-3'
p6865
sS's00009906'
p6866
S'7784-42-1'
p6867
sS's00002857'
p6868
S'7101-31-7'
p6869
sS's00008548'
p6870
S'6378-07-0'
p6871
sS's00010817'
p6872
S'7790-98-9'
p6873
sS's00003148'
p6874
S'116-15-4'
p6875
sS's00002856'
p6876
S'593-79-3'
p6877
sS's00004689'
p6878
S'2373-00-4'
p6879
sS's00000090'
p6880
S'14720-31-1'
p6881
sS's00000093'
p6882
S'14720-30-0'
p6883
sS's00008089'
p6884
S'597-64-8'
p6885
sS's00000095'
p6886
S'13768-60-0'
p6887
sS's00009140'
p6888
S'753-59-3'
p6889
sS's00000097'
p6890
S'7637-07-2'
p6891
sS's00008029'
p6892
S'13716-10-4'
p6893
sS's00000099'
p6894
S'83995-89-5'
p6895
sS's00000098'
p6896
S'23361-56-0'
p6897
sS's00008086'
p6898
S'78-00-2'
p6899
sS's00000301'
p6900
S'2928-09-8'
p6901
sS's00000300'
p6902
S'2711-76-4'
p6903
sS's00000303'
p6904
S'59163-71-2'
p6905
sS's00000302'
p6906
S'2928-12-3'
p6907
sS's00000305'
p6908
S'59163-75-6'
p6909
sS's00000304'
p6910
S'59163-74-5'
p6911
sS's00000306'
p6912
S'147164-51-0'
p6913
sS's00000308'
p6914
S'1796-57-2'
p6915
sS's00010810'
p6916
S'12069-89-5'
p6917
sS's00001789'
p6918
S'11077-59-1'
p6919
sS's00010465'
p6920
S'13460-51-0'
p6921
sS's00009422'
p6922
S'27218-16-2'
p6923
sS's00010467'
p6924
S'32062-14-9'
p6925
sS's00010466'
p6926
S'67177-47-3'
p6927
sS's00010461'
p6928
S'38150-67-3'
p6929
sS's00009934'
p6930
S'145771-87-5'
p6931
sS's00009937'
p6932
S'101010-12-2'
p6933
sS's00009936'
p6934
S'32520-13-1'
p6935
sS's00009938'
p6936
S'425371-31-9'
p6937
sS's00009429'
p6938
S'12265-61-1'
p6939
sS's00009428'
p6940
S'7758-95-4'
p6941
sS's00010754'
p6942
S'14541-24-3'
p6943
sS's00010468'
p6944
S'21308-80-5'
p6945
sS's00009141'
p6946
S'373-74-0'
p6947
sS's00001654'
p6948
S'40024-74-6'
p6949
sS's00007179'
p6950
S'72132-79-7'
p6951
sS's00001657'
p6952
S'538-74-9'
p6953
sS's00000789'
p6954
S'321-38-0'
p6955
sS's00001651'
p6956
S'599-66-6'
p6957
sS's00001652'
p6958
S'5335-87-5'
p6959
sS's00001653'
p6960
S'10381-70-1'
p6961
sS's00010811'
p6962
S'15117-75-6'
p6963
sS's00000784'
p6964
S'90-11-9'
p6965
sS's00000787'
p6966
S'875-62-7'
p6967
sS's00009143'
p6968
S'36336-08-0'
p6969
sS's00001658'
p6970
S'103-19-5'
p6971
sS's00001659'
p6972
S'57864-56-9'
p6973
sS's00009518'
p6974
S'14989-29-8'
p6975
sS's00001439'
p6976
S'1016-05-3'
p6977
sS's00001435'
p6978
S'100-32-3'
p6979
sS's00004157'
p6980
S'85288-90-0'
p6981
sS's00004150'
p6982
S'24313-50-6'
p6983
sS's00005938'
p6984
S'77376-07-9'
p6985
sS's00004153'
p6986
S'374-27-6'
p6987
sS's00008967'
p6988
S'10357-59-2'
p6989
sS's00007291'
p6990
S'618-48-4'
p6991
sS's00010728'
p6992
S'1309-33-7'
p6993
sS's00010729'
p6994
S'1317-96-0'
p6995
sS's00010726'
p6996
S'7705-08-0'
p6997
sS's00010727'
p6998
S'7705-08-0'
p6999
sS's00010725'
p7000
S'7705-08-0'
p7001
sS's00010722'
p7002
S'22325-61-7'
p7003
sS's00010723'
p7004
S'27846-09-9'
p7005
sS's00010720'
p7006
S'175861-93-5'
p7007
sS's00010721'
p7008
S'14067-02-8'
p7009
sS's00009687'
p7010
S'53314-77-5'
p7011
sS's00009686'
p7012
S'13478-20-1'
p7013
sS's00009685'
p7014
S'13847-65-9'
p7015
sS's00009684'
p7016
S'7783-54-2'
p7017
sS's00009683'
p7018
S'67374-76-9'
p7019
sS's00009682'
p7020
S'20193-58-2'
p7021
sS's00009681'
p7022
S'7783-53-1'
p7023
sS's00009680'
p7024
S'16865-60-4'
p7025
sS's00004311'
p7026
S'1871-57-4'
p7027
sS's00009689'
p7028
S'7783-55-3'
p7029
sS's00009688'
p7030
S'13709-31-4'
p7031
sS's00009337'
p7032
S'506-78-5'
p7033
sS's00009336'
p7034
S'507-25-5'
p7035
sS's00009334'
p7036
S'36058-28-3'
p7037
sS's00009333'
p7038
S'6829-52-3'
p7039
sS's00009332'
p7040
S'425602-41-1'
p7041
sS's00009331'
p7042
S'123132-54-7'
p7043
sS's00003225'
p7044
S'360-52-1'
p7045
sS's00008208'
p7046
S'403-42-9'
p7047
sS's00009339'
p7048
S'12385-37-4'
p7049
sS's00009338'
p7050
S'630-70-6'
p7051
sS's00002534'
p7052
S'593-66-8'
p7053
sS's00002535'
p7054
S'507-02-8'
p7055
sS's00002536'
p7056
S'64-69-7'
p7057
sS's00002821'
p7058
S'129064-95-5'
p7059
sS's00002530'
p7060
S'144-49-0'
p7061
sS's00002531'
p7062
S'1538-06-3'
p7063
sS's00009119'
p7064
S'593-78-2'
p7065
sS's00002533'
p7066
S'38795-06-1'
p7067
sS's00009117'
p7068
S'115-09-3'
p7069
sS's00005332'
p7070
S'1428-33-7'
p7071
sS's00009115'
p7072
S'993-10-2'
p7073
sS's00005330'
p7074
S'15156-63-5'
p7075
sS's00009113'
p7076
S'37832-49-8'
p7077
sS's00009112'
p7078
S'676-83-5'
p7079
sS's00009111'
p7080
S'676-97-1'
p7081
sS's00005334'
p7082
S'84333-17-5'
p7083
sS's00010094'
p7084
S'14332-32-2'
p7085
sS's00010095'
p7086
S'12315-33-2'
p7087
sS's00010090'
p7088
S'14515-04-9'
p7089
sS's00010091'
p7090
S'53826-03-2'
p7091
sS's00010092'
p7092
S'7646-69-7'
p7093
sS's00010093'
p7094
S'1310-73-2'
p7095
sS's00009388'
p7096
S'12595-88-9'
p7097
sS's00004550'
p7098
S'462-72-6'
p7099
sS's00004551'
p7100
S'6089-11-8'
p7101
sS's00004552'
p7102
S'104749-28-2'
p7103
sS's00004554'
p7104
S'41895-43-6'
p7105
sS's00004555'
p7106
S'110-56-5'
p7107
sS's00004556'
p7108
S'541-33-3'
p7109
sS's00004557'
p7110
S'594-37-6'
p7111
sS's00004558'
p7112
S'4279-22-5'
p7113
sS's00004559'
p7114
S'7581-97-7'
p7115
sS's00009759'
p7116
S'35901-46-3'
p7117
sS's00009758'
p7118
S'87331-13-3'
p7119
sS's00009751'
p7120
S'36882-12-9'
p7121
sS's00009750'
p7122
S'13967-06-1'
p7123
sS's00009753'
p7124
S'10022-50-1'
p7125
sS's00009752'
p7126
S'7789-25-5'
p7127
sS's00009755'
p7128
S'7789-26-6'
p7129
sS's00009754'
p7130
S'96607-23-7'
p7131
sS's00009757'
p7132
S'7681-49-4'
p7133
sS's00009756'
p7134
S'18820-63-8'
p7135
sS's00002228'
p7136
S'77704-65-5'
p7137
sS's00002229'
p7138
S'683-73-8'
p7139
sS's00010753'
p7140
S'12306-07-9'
p7141
sS's00009794'
p7142
S'13573-08-5'
p7143
sS's00002220'
p7144
S'356535-00-7'
p7145
sS's00002221'
p7146
S'90116-46-4'
p7147
sS's00002222'
p7148
S'2747-58-2'
p7149
sS's00002223'
p7150
S'558-59-8'
p7151
sS's00002224'
p7152
S'917-96-4'
p7153
sS's00002225'
p7154
S'2206-26-0'
p7155
sS's00002226'
p7156
S'90399-51-2'
p7157
sS's00002227'
p7158
S'22476-20-6'
p7159
sS's00010388'
p7160
S'7440-07-5'
p7161
sS's00010389'
p7162
S'7440-14-4'
p7163
sS's00009007'
p7164
S'71701-40-1'
p7165
sS's00008203'
p7166
S'1878-66-6'
p7167
sS's00008831'
p7168
S'1712-71-6'
p7169
sS's00005208'
p7170
S'18135-05-2'
p7171
sS's00010380'
p7172
S'1314-87-0'
p7173
sS's00001508'
p7174
S'86233-74-1'
p7175
sS's00010382'
p7176
S'1314-91-6'
p7177
sS's00010383'
p7178
S'7440-05-3'
p7179
sS's00010384'
p7180
S'12596-93-9'
p7181
sS's00010385'
p7182
S'12137-77-8'
p7183
sS's00010386'
p7184
S'7440-10-0'
p7185
sS's00001509'
p7186
S'244105-38-2'
p7187
sS's00010513'
p7188
S'2837-86-7'
p7189
sS's00008091'
p7190
S'66365-05-7'
p7191
sS's00005550'
p7192
S'4897-84-1'
p7193
sS's00008206'
p7194
S'394-46-7'
p7195
sS's00005557'
p7196
S'928-50-7'
p7197
sS's00006314'
p7198
S'1722-26-5'
p7199
sS's00005556'
p7200
S'503-60-6'
p7201
sS's00001056'
p7202
S'3129-39-3'
p7203
sS's00008059'
p7204
S'592-65-4'
p7205
sS's00001057'
p7206
S'88635-78-3'
p7207
sS's00005206'
p7208
S'2943-62-6'
p7209
sS's00010571'
p7210
S'591755-73-6'
p7211
sS's00001054'
p7212
S'13985-77-8'
p7213
sS's00005650'
p7214
S'1449-91-8'
p7215
sS's00004027'
p7216
S'513-53-1'
p7217
sS's00005652'
p7218
S'80612-03-9'
p7219
sS's00005653'
p7220
S'80862-68-6'
p7221
sS's00002318'
p7222
S'421-06-7'
p7223
sS's00008167'
p7224
S'825-44-5'
p7225
sS's00005205'
p7226
S'3531-44-0'
p7227
sS's00002314'
p7228
S'359-19-3'
p7229
sS's00002315'
p7230
S'79-27-6'
p7231
sS's00002316'
p7232
S'630-16-0'
p7233
sS's00002317'
p7234
S'107551-54-2'
p7235
sS's00002310'
p7236
S'590-12-5'
p7237
sS's00002311'
p7238
S'593-92-0'
p7239
sS's00002312'
p7240
S'75-81-0'
p7241
sS's00002313'
p7242
S'75-82-1'
p7243
sS's00004437'
p7244
S'13294-71-8'
p7245
sS's00005441'
p7246
S'5414-21-1'
p7247
sS's00005440'
p7248
S'54932-74-0'
p7249
sS's00001116'
p7250
S'127-63-9'
p7251
sS's00010274'
p7252
S'1313-99-1'
p7253
sS's00010275'
p7254
S'16812-54-7'
p7255
sS's00010276'
p7256
S'7439-99-8'
p7257
sS's00010277'
p7258
S'12202-03-8'
p7259
sS's00010270'
p7260
S'12035-20-0'
p7261
sS's00010271'
p7262
S'7440-01-9'
p7263
sS's00010272'
p7264
S'58984-40-0'
p7265
sS's00010273'
p7266
S'7440-02-0'
p7267
sS's00002798'
p7268
S'1585-74-6'
p7269
sS's00005658'
p7270
S'1892-03-1'
p7271
sS's00010378'
p7272
S'7439-92-1'
p7273
sS's00009202'
p7274
S'6154-14-9'
p7275
sS's00002791'
p7276
S'506-82-1'
p7277
sS's00002792'
p7278
S'1529-48-2'
p7279
sS's00009517'
p7280
S'7447-41-8'
p7281
sS's00002794'
p7282
S'683-85-2'
p7283
sS's00005793'
p7284
S'2108-92-1'
p7285
sS's00002796'
p7286
S'753-73-1'
p7287
sS's00002797'
p7288
S'4518-98-3'
p7289
sS's00000111'
p7290
S'12524-20-8'
p7291
sS's00003144'
p7292
S'53789-11-0'
p7293
sS's00010007'
p7294
S'13709-65-4'
p7295
sS's00004684'
p7296
S'505-29-3'
p7297
sS's00010006'
p7298
S'13766-26-2'
p7299
sS's00008882'
p7300
S'3889-76-7'
p7301
sS's00008880'
p7302
S'471-34-1'
p7303
sS's00008881'
p7304
S'12011-58-4'
p7305
sS's00008886'
p7306
S'1691-90-3'
p7307
sS's00008887'
p7308
S'75-71-8'
p7309
sS's00008885'
p7310
S'1605-72-7'
p7311
sS's00010752'
p7312
S'13817-06-6'
p7313
sS's00008888'
p7314
S'70490-94-7'
p7315
sS's00008889'
p7316
S'93105-06-7'
p7317
sS's00004685'
p7318
S'764-44-3'
p7319
sS's00005676'
p7320
S'118-75-2'
p7321
sS's00001473'
p7322
S'6772-85-6'
p7323
sS's00009200'
p7324
S'75-54-7'
p7325
sS's00004439'
p7326
S'105-36-2'
p7327
sS's00007289'
p7328
S'30216-44-5'
p7329
sS's00000882'
p7330
S'712-95-8'
p7331
sS's00000883'
p7332
S'7293-85-8'
p7333
sS's00000881'
p7334
S'112082-98-1'
p7335
sS's00000886'
p7336
S'831-34-5'
p7337
sS's00000887'
p7338
S'58656-98-7'
p7339
sS's00000884'
p7340
S'16537-17-0'
p7341
sS's00000885'
p7342
S'71145-74-9'
p7343
sS's00005993'
p7344
S'71771-37-4'
p7345
sS's00006788'
p7346
S'33838-52-7'
p7347
sS's00004453'
p7348
S'7611-87-2'
p7349
sS's00005992'
p7350
S'53597-70-9'
p7351
sS's00006835'
p7352
S'696-32-2'
p7353
sS's00006782'
p7354
S'20644-87-5'
p7355
sS's00002689'
p7356
S'917-59-9'
p7357
sS's00006787'
p7358
S'10120-28-2'
p7359
sS's00006833'
p7360
S'16888-21-4'
p7361
sS's00006832'
p7362
S'7430-25-3'
p7363
sS's00009133'
p7364
S'1455-13-6'
p7365
sS's00010433'
p7366
S'12187-04-1'
p7367
sS's00003108'
p7368
S'127-21-9'
p7369
sS's00004452'
p7370
S'4461-42-1'
p7371
sS's00008959'
p7372
S'2909-52-6'
p7373
sS's00006301'
p7374
S'6069-38-1'
p7375
sS's00006300'
p7376
S'7778-06-5'
p7377
sS's00003465'
p7378
S'598-78-7'
p7379
sS's00010430'
p7380
S'7440-26-8'
p7381
sS's00006309'
p7382
S'997-50-2'
p7383
sS's00003663'
p7384
S'4239-10-5'
p7385
sS's00003662'
p7386
S'6482-24-2'
p7387
sS's00003661'
p7388
S'106-94-5'
p7389
sS's00003660'
p7390
S'75-26-3'
p7391
sS's00003667'
p7392
S'2440-40-6'
p7393
sS's00003666'
p7394
S'1825-84-9'
p7395
sS's00003665'
p7396
S'540-54-5'
p7397
sS's00003664'
p7398
S'75-29-6'
p7399
sS's00006167'
p7400
S'21351-31-5'
p7401
sS's00003669'
p7402
S'627-42-9'
p7403
sS's00003668'
p7404
S'30615-19-1'
p7405
sS's00009205'
p7406
S'1184-57-2'
p7407
sS's00003461'
p7408
S'106-89-8'
p7409
sS's00003460'
p7410
S'79-03-8'
p7411
sS's00003463'
p7412
S'107-94-8'
p7413
sS's00003462'
p7414
S'96-34-4'
p7415
sS's00003882'
p7416
S'385441-63-4'
p7417
sS's00003464'
p7418
S'541-41-3'
p7419
sS's00006499'
p7420
S'4985-62-0'
p7421
sS's00006498'
p7422
S'86803-04-5'
p7423
sS's00003469'
p7424
S'1117-91-5'
p7425
sS's00010431'
p7426
S'22541-49-7'
p7427
sS's00003145'
p7428
S'75705-16-7'
p7429
sS's00007784'
p7430
S'7697-09-8'
p7431
sS's00007785'
p7432
S'33815-66-6'
p7433
sS's00007786'
p7434
S'36375-66-3'
p7435
sS's00007787'
p7436
S'931-98-6'
p7437
sS's00007780'
p7438
S'74601-20-0'
p7439
sS's00003459'
p7440
S'78-95-5'
p7441
sS's00007783'
p7442
S'1112-56-7'
p7443
sS's00004129'
p7444
S'625-88-7'
p7445
sS's00008955'
p7446
S'65871-23-0'
p7447
sS's00007543'
p7448
S'1330-20-7'
p7449
sS's00000018'
p7450
S'12379-67-8'
p7451
sS's00010436'
p7452
S'7440-28-0'
p7453
sS's00008561'
p7454
S'136016-19-8'
p7455
sS's00004041'
p7456
S'557-20-0'
p7457
sS's00001914'
p7458
S'32665-18-2'
p7459
sS's00001913'
p7460
S'33948-28-6'
p7461
sS's00001912'
p7462
S'3531-43-9'
p7463
sS's00001911'
p7464
S'1461-25-2'
p7465
sS's00008560'
p7466
S'136016-18-7'
p7467
sS's00004897'
p7468
S'111-24-0'
p7469
sS's00004128'
p7470
S'12002-28-7'
p7471
sS's00002278'
p7472
S'1960-67-4'
p7473
sS's00004899'
p7474
S'623-34-7'
p7475
sS's00005246'
p7476
S'102526-10-3'
p7477
sS's00003880'
p7478
S'167644-27-1'
p7479
sS's00003206'
p7480
S'64712-27-2'
p7481
sS's00010437'
p7482
S'76939-73-6'
p7483
sS's00000450'
p7484
S'54807-86-2'
p7485
sS's00004898'
p7486
S'507-45-9'
p7487
sS's00008858'
p7488
S'86728-79-2'
p7489
sS's00001168'
p7490
S'10075-74-8'
p7491
sS's00003190'
p7492
S'75-22-9'
p7493
sS's00008656'
p7494
S'53489-63-7'
p7495
sS's00010434'
p7496
S'7440-29-1'
p7497
sS's00008112'
p7498
S'16957-97-4'
p7499
sS's00010813'
p7500
S'84796-14-5'
p7501
sS's00007300'
p7502
S'98-16-8'
p7503
sS's00007301'
p7504
S'12078-32-9'
p7505
sS's00007302'
p7506
S'81568-85-6'
p7507
sS's00008113'
p7508
S'57147-26-9'
p7509
sS's00000082'
p7510
S'13766-28-4'
p7511
sS's00000083'
p7512
S'1303-86-2'
p7513
sS's00000080'
p7514
S'13701-67-2'
p7515
sS's00000081'
p7516
S'13965-73-6'
p7517
sS's00004309'
p7518
S'760-23-6'
p7519
sS's00000087'
p7520
S'10294-33-4'
p7521
sS's00000084'
p7522
S'13703-95-2'
p7523
sS's00000085'
p7524
S'19961-29-6'
p7525
sS's00000088'
p7526
S'20583-55-5'
p7527
sS's00004306'
p7528
S'37807-16-2'
p7529
sS's00005696'
p7530
S'89031-87-8'
p7531
sS's00004303'
p7532
S'20965-20-2'
p7533
sS's00004302'
p7534
S'5332-06-9'
p7535
sS's00010435'
p7536
S'7440-32-6'
p7537
sS's00003849'
p7538
S'661-54-1'
p7539
sS's00003848'
p7540
S'19214-96-1'
p7541
sS's00003841'
p7542
S'507-55-1'
p7543
sS's00003840'
p7544
S'422-56-0'
p7545
sS's00003847'
p7546
S'23197-02-6'
p7547
sS's00003845'
p7548
S'35434-73-2'
p7549
sS's00003844'
p7550
S'13275-25-7'
p7551
sS's00010476'
p7552
S'593-98-6'
p7553
sS's00009923'
p7554
S'13537-33-2'
p7555
sS's00009436'
p7556
S'10476-85-4'
p7557
sS's00009437'
p7558
S'10049-06-6'
p7559
sS's00010472'
p7560
S'33412-11-2'
p7561
sS's00009431'
p7562
S'10025-67-9'
p7563
sS's00009924'
p7564
S'72451-97-9'
p7565
sS's00009433'
p7566
S'10025-68-0'
p7567
sS's00003681'
p7568
S'18264-08-9'
p7569
sS's00003680'
p7570
S'460-13-9'
p7571
sS's00003683'
p7572
S'16056-39-6'
p7573
sS's00003682'
p7574
S'16056-35-2'
p7575
sS's00003685'
p7576
S'107-08-4'
p7577
sS's00003684'
p7578
S'75-30-9'
p7579
sS's00010478'
p7580
S'35911-92-3'
p7581
sS's00000796'
p7582
S'7113-10-2'
p7583
sS's00000797'
p7584
S'10058-38-5'
p7585
sS's00005872'
p7586
S'60887-86-7'
p7587
sS's00000792'
p7588
S'59163-73-4'
p7589
sS's00000793'
p7590
S'76279-71-5'
p7591
sS's00000790'
p7592
S'323-09-1'
p7593
sS's00000791'
p7594
S'32019-38-8'
p7595
sS's00005924'
p7596
S'49827-12-5'
p7597
sS's00010750'
p7598
S'12259-29-9'
p7599
sS's00005923'
p7600
S'30980-11-1'
p7601
sS's00002408'
p7602
S'147703-38-6'
p7603
sS's00009261'
p7604
S'56932-36-6'
p7605
sS's00007177'
p7606
S'16156-50-6'
p7607
sS's00005146'
p7608
S'2782-91-4'
p7609
sS's00002409'
p7610
S'359-35-3'
p7611
sS's00010713'
p7612
S'12105-81-6'
p7613
sS's00010712'
p7614
S'12075-40-0'
p7615
sS's00004413'
p7616
S'1708-32-3'
p7617
sS's00004412'
p7618
S'627-51-0'
p7619
sS's00004415'
p7620
S'65923-98-0'
p7621
sS's00004414'
p7622
S'5954-75-6'
p7623
sS's00004417'
p7624
S'97797-51-8'
p7625
sS's00004416'
p7626
S'97797-49-4'
p7627
sS's00004419'
p7628
S'114646-21-8'
p7629
sS's00004418'
p7630
S'97797-52-9'
p7631
sS's00010719'
p7632
S'183748-02-9'
p7633
sS's00010718'
p7634
S'11081-35-9'
p7635
sS's00009694'
p7636
S'7783-57-5'
p7637
sS's00009695'
p7638
S'51621-17-1'
p7639
sS's00009696'
p7640
S'7783-58-6'
p7641
sS's00009697'
p7642
S'109284-35-7'
p7643
sS's00001579'
p7644
S'1719-06-8'
p7645
sS's00010165'
p7646
S'7440-74-6'
p7647
sS's00009323'
p7648
S'3129-90-6'
p7649
sS's00004112'
p7650
S'3141-26-2'
p7651
sS's00004508'
p7652
S'23164-74-1'
p7653
sS's00010542'
p7654
S'17336-56-0'
p7655
sS's00005873'
p7656
S'64878-06-4'
p7657
sS's00004114'
p7658
S'3172-52-9'
p7659
sS's00010608'
p7660
S'591755-76-9'
p7661
sS's00009100'
p7662
S'123811-61-0'
p7663
sS's00009101'
p7664
S'422506-71-6'
p7665
sS's00002815'
p7666
S'74963-95-4'
p7667
sS's00009103'
p7668
S'74-83-9'
p7669
sS's00009104'
p7670
S'98983-26-7'
p7671
sS's00009105'
p7672
S'506-83-2'
p7673
sS's00002810'
p7674
S'353-66-2'
p7675
sS's00009367'
p7676
S'2944-05-0'
p7677
sS's00005325'
p7678
S'6400-97-1'
p7679
sS's00005326'
p7680
S'31599-94-7'
p7681
sS's00005327'
p7682
S'694-34-8'
p7683
sS's00003106'
p7684
S'422-85-5'
p7685
sS's00000128'
p7686
S'7787-60-2'
p7687
sS's00001355'
p7688
S'1116-39-8'
p7689
sS's00001354'
p7690
S'122-56-5'
p7691
sS's00001357'
p7692
S'10388-29-1'
p7693
sS's00001356'
p7694
S'10325-44-7'
p7695
sS's00001350'
p7696
S'43197-83-7'
p7697
sS's00004121'
p7698
S'2714-38-7'
p7699
sS's00009309'
p7700
S'35576-88-6'
p7701
sS's00001359'
p7702
S'338-49-8'
p7703
sS's00001358'
p7704
S'688-74-4'
p7705
sS's00010606'
p7706
S'63520-46-7'
p7707
sS's00004529'
p7708
S'280-45-5'
p7709
sS's00010540'
p7710
S'207602-03-7'
p7711
sS's00009748'
p7712
S'60388-18-3'
p7713
sS's00009218'
p7714
S'86392-32-7'
p7715
sS's00004120'
p7716
S'407-70-5'
p7717
sS's00009214'
p7718
S'62-56-6'
p7719
sS's00009743'
p7720
S'13966-95-5'
p7721
sS's00009740'
p7722
S'27575-47-9'
p7723
sS's00009741'
p7724
S'16087-66-4'
p7725
sS's00009746'
p7726
S'14953-28-7'
p7727
sS's00009747'
p7728
S'13569-25-0'
p7729
sS's00009744'
p7730
S'7789-23-3'
p7731
sS's00009745'
p7732
S'7789-24-4'
p7733
sS's00002259'
p7734
S'41895-33-4'
p7735
sS's00002258'
p7736
S'689-99-6'
p7737
sS's00002255'
p7738
S'599-00-8'
p7739
sS's00002257'
p7740
S'102937-69-9'
p7741
sS's00010251'
p7742
S'12033-56-6'
p7743
sS's00002721'
p7744
S'5852-45-9'
p7745
sS's00002250'
p7746
S'1516-08-1'
p7747
sS's00002253'
p7748
S'926-09-0'
p7749
sS's00002252'
p7750
S'32585-19-6'
p7751
sS's00005210'
p7752
S'53378-72-6'
p7753
sS's00002499'
p7754
S'2031-95-0'
p7755
sS's00010761'
p7756
S'74835-81-7'
p7757
sS's00004123'
p7758
S'407-38-5'
p7759
sS's00005216'
p7760
S'102286-49-7'
p7761
sS's00005217'
p7762
S'138495-43-9'
p7763
sS's00005218'
p7764
S'188690-77-9'
p7765
sS's00002492'
p7766
S'79-22-1'
p7767
sS's00002491'
p7768
S'79-11-8'
p7769
sS's00002490'
p7770
S'7763-77-1'
p7771
sS's00002497'
p7772
S'3652-86-6'
p7773
sS's00002496'
p7774
S'113788-06-0'
p7775
sS's00004059'
p7776
S'762-04-9'
p7777
sS's00002494'
p7778
S'2680-00-4'
p7779
sS's00000145'
p7780
S'96028-01-2'
p7781
sS's00004122'
p7782
S'380-51-8'
p7783
sS's00000144'
p7784
S'68322-97-4'
p7785
sS's00010768'
p7786
S'13870-16-1'
p7787
sS's00010769'
p7788
S'184825-25-0'
p7789
sS's00010685'
p7790
S'133617-92-2'
p7791
sS's00004125'
p7792
S'377-36-6'
p7793
sS's00008486'
p7794
S'15482-60-7'
p7795
sS's00008487'
p7796
S'13120-03-1'
p7797
sS's00002675'
p7798
S'60743-08-0'
p7799
sS's00002674'
p7800
S'60743-07-9'
p7801
sS's00002673'
p7802
S'44204-02-6'
p7803
sS's00002672'
p7804
S'1782-89-4'
p7805
sS's00005456'
p7806
S'115523-11-0'
p7807
sS's00005454'
p7808
S'694-21-3'
p7809
sS's00005455'
p7810
S'26650-63-5'
p7811
sS's00005452'
p7812
S'335-03-5'
p7813
sS's00005453'
p7814
S'694-20-2'
p7815
sS's00010287'
p7816
S'16752-60-6'
p7817
sS's00010288'
p7818
S'12165-45-6'
p7819
sS's00000149'
p7820
S'13172-31-1'
p7821
sS's00010049'
p7822
S'10405-27-3'
p7823
sS's00010048'
p7824
S'7664-39-3'
p7825
sS's00010047'
p7826
S'13762-18-0'
p7827
sS's00010046'
p7828
S'34322-11-7'
p7829
sS's00010045'
p7830
S'14940-63-7'
p7831
sS's00000148'
p7832
S'10031-22-8'
p7833
sS's00010043'
p7834
S'98214-85-8'
p7835
sS's00010042'
p7836
S'13537-02-5'
p7837
sS's00010041'
p7838
S'13983-20-5'
p7839
sS's00010040'
p7840
S'13517-00-5'
p7841
sS's00000126'
p7842
S'7440-69-9'
p7843
sS's00010545'
p7844
S'659-86-9'
p7845
sS's00010687'
p7846
S'70870-59-6'
p7847
sS's00004127'
p7848
S'2809-92-9'
p7849
sS's00005904'
p7850
S'626-62-0'
p7851
sS's00004570'
p7852
S'115523-07-4'
p7853
sS's00010164'
p7854
S'7790-30-9'
p7855
sS's00009118'
p7856
S'52881-57-9'
p7857
sS's00000728'
p7858
S'2162-98-3'
p7859
sS's00004126'
p7860
S'188690-78-0'
p7861
sS's00002045'
p7862
S'51951-64-5'
p7863
sS's00006794'
p7864
S'14099-62-8'
p7865
sS's00006796'
p7866
S'434-64-0'
p7867
sS's00006791'
p7868
S'2154-55-4'
p7869
sS's00006792'
p7870
S'2037-26-5'
p7871
sS's00006793'
p7872
S'16675-63-1'
p7873
sS's00002270'
p7874
S'16090-26-9'
p7875
sS's00001234'
p7876
S'39333-53-4'
p7877
sS's00010166'
p7878
S'61178-97-0'
p7879
sS's00009390'
p7880
S'12014-74-3'
p7881
sS's00002904'
p7882
S'593-61-3'
p7883
sS's00006318'
p7884
S'1608-26-0'
p7885
sS's00002108'
p7886
S'63230-70-6'
p7887
sS's00002907'
p7888
S'354-04-1'
p7889
sS's00006310'
p7890
S'3531-46-2'
p7891
sS's00002100'
p7892
S'595-89-1'
p7893
sS's00002102'
p7894
S'595-90-4'
p7895
sS's00002105'
p7896
S'67634-80-4'
p7897
sS's00002104'
p7898
S'67634-82-6'
p7899
sS's00002107'
p7900
S'37274-12-7'
p7901
sS's00006317'
p7902
S'630-31-9'
p7903
sS's00000521'
p7904
S'12129-06-5'
p7905
sS's00002909'
p7906
S'143962-85-0'
p7907
sS's00010167'
p7908
S'12030-22-7'
p7909
sS's00002279'
p7910
S'1717-50-6'
p7911
sS's00003674'
p7912
S'20717-73-1'
p7913
sS's00003675'
p7914
S'20717-74-2'
p7915
sS's00003676'
p7916
S'3972-26-7'
p7917
sS's00003677'
p7918
S'3979-51-9'
p7919
sS's00003670'
p7920
S'1538-87-0'
p7921
sS's00003671'
p7922
S'3188-13-4'
p7923
sS's00003672'
p7924
S'3570-58-9'
p7925
sS's00003673'
p7926
S'542-81-4'
p7927
sS's00009016'
p7928
S'159119-83-2'
p7929
sS's00003678'
p7930
S'4712-36-1'
p7931
sS's00003679'
p7932
S'420-26-8'
p7933
sS's00009017'
p7934
S'422506-72-7'
p7935
sS's00003472'
p7936
S'75524-52-6'
p7937
sS's00003473'
p7938
S'2875-97-0'
p7939
sS's00003470'
p7940
S'1184-59-4'
p7941
sS's00003471'
p7942
S'22088-46-6'
p7943
sS's00003476'
p7944
S'1184-60-7'
p7945
sS's00006485'
p7946
S'51193-06-7'
p7947
sS's00010160'
p7948
S'14696-98-1'
p7949
sS's00003475'
p7950
S'818-92-8'
p7951
sS's00010869'
p7952
S'7440-70-2'
p7953
sS's00006489'
p7954
S'1122-83-4'
p7955
sS's00003478'
p7956
S'19184-10-2'
p7957
sS's00003479'
p7958
S'20327-65-5'
p7959
sS's00006351'
p7960
S'120-82-1'
p7961
sS's00003141'
p7962
S'19721-29-0'
p7963
sS's00004697'
p7964
S'78-77-3'
p7965
sS's00001901'
p7966
S'17922-21-3'
p7967
sS's00001902'
p7968
S'56042-11-6'
p7969
sS's00001903'
p7970
S'56598-35-7'
p7971
sS's00001904'
p7972
S'12092-21-6'
p7973
sS's00002475'
p7974
S'75-94-5'
p7975
sS's00003626'
p7976
S'1115-13-5'
p7977
sS's00007973'
p7978
S'105669-65-6'
p7979
sS's00007119'
p7980
S'918-07-0'
p7981
sS's00007203'
p7982
S'5926-35-2'
p7983
sS's00007202'
p7984
S'3531-47-3'
p7985
sS's00004882'
p7986
S'66517-47-3'
p7987
sS's00004883'
p7988
S'13463-40-6'
p7989
sS's00004880'
p7990
S'105311-66-8'
p7991
sS's00004881'
p7992
S'105311-67-9'
p7993
sS's00007209'
p7994
S'54335-88-5'
p7995
sS's00000528'
p7996
S'768-93-4'
p7997
sS's00007751'
p7998
S'14221-06-8'
p7999
sS's00007750'
p8000
S'106292-74-4'
p8001
sS's00003217'
p8002
S'2875-96-9'
p8003
sS's00010162'
p8004
S'13779-93-6'
p8005
sS's00001147'
p8006
S'1271-54-1'
p8007
sS's00003212'
p8008
S'13838-16-9'
p8009
sS's00003213'
p8010
S'26675-46-7'
p8011
sS's00003210'
p8012
S'99728-16-2'
p8013
sS's00005376'
p8014
S'96-40-2'
p8015
sS's00002419'
p8016
S'590-27-2'
p8017
sS's00000086'
p8018
S'66581-66-6'
p8019
sS's00003218'
p8020
S'3976-29-2'
p8021
sS's00003219'
p8022
S'430-64-8'
p8023
sS's00001171'
p8024
S'73650-69-8'
p8025
sS's00002537'
p8026
S'917-57-7'
p8027
sS's00010460'
p8028
S'740-42-8'
p8029
sS's00008646'
p8030
S'82666-06-6'
p8031
sS's00009029'
p8032
S'19469-05-7'
p8033
sS's00000415'
p8034
S'122519-92-0'
p8035
sS's00000417'
p8036
S'137452-19-8'
p8037
sS's00000416'
p8038
S'701-30-4'
p8039
sS's00000411'
p8040
S'105731-82-6'
p8041
sS's00000410'
p8042
S'72734-85-1'
p8043
sS's00000412'
p8044
S'139566-53-3'
p8045
sS's00000089'
p8046
S'13842-52-9'
p8047
sS's00004318'
p8048
S'50284-99-6'
p8049
sS's00004319'
p8050
S'89397-80-8'
p8051
sS's00004316'
p8052
S'1745-72-8'
p8053
sS's00004468'
p8054
S'75180-01-7'
p8055
sS's00004314'
p8056
S'13602-13-6'
p8057
sS's00004315'
p8058
S'872-46-8'
p8059
sS's00004312'
p8060
S'3375-22-2'
p8061
sS's00004313'
p8062
S'6065-93-6'
p8063
sS's00004310'
p8064
S'764-41-0'
p8065
sS's00004469'
p8066
S'75180-02-8'
p8067
sS's00000634'
p8068
S'4314-94-7'
p8069
sS's00000637'
p8070
S'559-45-5'
p8071
sS's00010448'
p8072
S'7440-66-6'
p8073
sS's00000631'
p8074
S'77471-74-0'
p8075
sS's00000630'
p8076
S'77471-73-9'
p8077
sS's00000632'
p8078
S'17873-08-4'
p8079
sS's00003854'
p8080
S'422-06-0'
p8081
sS's00010442'
p8082
S'12597-61-4'
p8083
sS's00010441'
p8084
S'7440-33-7'
p8085
sS's00010440'
p8086
S'7440-62-2'
p8087
sS's00010447'
p8088
S'7440-64-4'
p8089
sS's00010446'
p8090
S'7440-65-5'
p8091
sS's00010445'
p8092
S'12185-19-2'
p8093
sS's00010444'
p8094
S'7440-63-3'
p8095
sS's00009917'
p8096
S'13637-65-5'
p8097
sS's00009916'
p8098
S'20424-85-5'
p8099
sS's00009912'
p8100
S'13465-73-1'
p8101
sS's00009911'
p8102
S'18288-22-7'
p8103
sS's00009910'
p8104
S'35825-58-2'
p8105
sS's00008426'
p8106
S'5342-84-7'
p8107
sS's00008427'
p8108
S'78725-90-3'
p8109
sS's00000310'
p8110
S'32313-88-5'
p8111
sS's00009919'
p8112
S'13465-78-6'
p8113
sS's00004436'
p8114
S'5162-44-7'
p8115
sS's00000311'
p8116
S'103966-63-8'
p8117
sS's00008356'
p8118
S'82086-46-2'
p8119
sS's00008357'
p8120
S'15321-51-4'
p8121
sS's00008354'
p8122
S'39909-74-5'
p8123
sS's00005139'
p8124
S'21961-74-0'
p8125
sS's00005138'
p8126
S'994-46-7'
p8127
sS's00006524'
p8128
S'89829-68-5'
p8129
sS's00006526'
p8130
S'1521-56-8'
p8131
sS's00000418'
p8132
S'35779-04-5'
p8133
sS's00005137'
p8134
S'17336-79-7'
p8135
sS's00005133'
p8136
S'33892-95-4'
p8137
sS's00010704'
p8138
S'14986-48-2'
p8139
sS's00010705'
p8140
S'24094-93-7'
p8141
sS's00010706'
p8142
S'24094-93-7'
p8143
sS's00010707'
p8144
S'12053-27-9'
p8145
sS's00001126'
p8146
S'829-85-6'
p8147
sS's00010701'
p8148
S'14102-48-8'
p8149
sS's00010702'
p8150
S'13770-22-4'
p8151
sS's00010703'
p8152
S'49681-65-4'
p8153
sS's00006523'
p8154
S'17228-64-7'
p8155
sS's00010708'
p8156
S'1308-38-9'
p8157
sS's00010709'
p8158
S'1308-38-9'
p8159
sS's00006522'
p8160
S'17228-63-6'
p8161
sS's00007282'
p8162
S'12192-97-1'
p8163
sS's00006521'
p8164
S'18368-63-3'
p8165
sS's00007991'
p8166
S'5272-02-6'
p8167
sS's00003515'
p8168
S'2682-49-7'
p8169
sS's00009356'
p8170
S'33637-76-2'
p8171
sS's00009351'
p8172
S'143-33-9'
p8173
sS's00009353'
p8174
S'15941-77-2'
p8175
sS's00008510'
p8176
S'5408-07-1'
p8177
sS's00008511'
p8178
S'770-90-1'
p8179
sS's00008512'
p8180
S'121329-74-6'
p8181
sS's00008513'
p8182
S'56453-93-1'
p8183
sS's00008514'
p8184
S'58921-31-6'
p8185
sS's00003517'
p8186
S'63369-86-8'
p8187
sS's00004088'
p8188
S'3908-55-2'
p8189
sS's00009593'
p8190
S'13813-19-9'
p8191
sS's00004087'
p8192
S'75-74-1'
p8193
sS's00009591'
p8194
S'7789-20-0'
p8195
sS's00003516'
p8196
S'96-53-7'
p8197
sS's00009597'
p8198
S'13550-49-7'
p8199
sS's00009596'
p8200
S'69103-86-2'
p8201
sS's00004080'
p8202
S'28167-51-3'
p8203
sS's00004081'
p8204
S'597-07-9'
p8205
sS's00005683'
p8206
S'1735-17-7'
p8207
sS's00005682'
p8208
S'70594-57-9'
p8209
sS's00005681'
p8210
S'1603-55-0'
p8211
sS's00005680'
p8212
S'13007-92-6'
p8213
sS's00005687'
p8214
S'1076-43-3'
p8215
sS's00002972'
p8216
S'19901-15-6'
p8217
sS's00005684'
p8218
S'21666-38-6'
p8219
sS's00005689'
p8220
S'355-75-9'
p8221
sS's00002973'
p8222
S'1112-02-3'
p8223
sS's00009179'
p8224
S'4853-80-9'
p8225
sS's00008439'
p8226
S'30439-34-0'
p8227
sS's00010678'
p8228
S'42430-90-0'
p8229
sS's00010679'
p8230
S'574003-31-9'
p8231
sS's00005043'
p8232
S'543-59-9'
p8233
sS's00008438'
p8234
S'18760-11-7'
p8235
sS's00005045'
p8236
S'616-20-6'
p8237
sS's00003430'
p8238
S'45345-86-6'
p8239
sS's00005047'
p8240
S'631-65-2'
p8241
sS's00005046'
p8242
S'625-29-6'
p8243
sS's00005049'
p8244
S'616-13-7'
p8245
sS's00009926'
p8246
S'13598-42-0'
p8247
sS's00010675'
p8248
S'1486-01-7'
p8249
sS's00010676'
p8250
S'58802-20-3'
p8251
sS's00010677'
p8252
S'64560-17-4'
p8253
sS's00009432'
p8254
S'14457-70-6'
p8255
sS's00004530'
p8256
S'61580-09-4'
p8257
sS's00009792'
p8258
S'7440-56-4'
p8259
sS's00009925'
p8260
S'13765-45-2'
p8261
sS's00010838'
p8262
S'99260-58-9'
p8263
sS's00009779'
p8264
S'33019-21-5'
p8265
sS's00009778'
p8266
S'12596-01-9'
p8267
sS's00009777'
p8268
S'7439-89-6'
p8269
sS's00009776'
p8270
S'13981-88-9'
p8271
sS's00009775'
p8272
S'16757-14-5'
p8273
sS's00009774'
p8274
S'51621-16-0'
p8275
sS's00009773'
p8276
S'7789-27-7'
p8277
sS's00009772'
p8278
S'13569-27-2'
p8279
sS's00006520'
p8280
S'3678-62-4'
p8281
sS's00009770'
p8282
S'17209-59-5'
p8283
sS's00009009'
p8284
S'12334-26-8'
p8285
sS's00009008'
p8286
S'141727-20-0'
p8287
sS's00009536'
p8288
S'21295-50-1'
p8289
sS's00002248'
p8290
S'72885-11-1'
p8291
sS's00002246'
p8292
S'1632-99-1'
p8293
sS's00002247'
p8294
S'64919-23-9'
p8295
sS's00002244'
p8296
S'83364-08-3'
p8297
sS's00009002'
p8298
S'1871-24-5'
p8299
sS's00002242'
p8300
S'3675-63-6'
p8301
sS's00002243'
p8302
S'19199-91-8'
p8303
sS's00002240'
p8304
S'356535-01-8'
p8305
sS's00002241'
p8306
S'71668-46-7'
p8307
sS's00010839'
p8308
S'13463-30-4'
p8309
sS's00005267'
p8310
S'527-72-0'
p8311
sS's00005266'
p8312
S'88-13-1'
p8313
sS's00002488'
p8314
S'75-36-5'
p8315
sS's00002489'
p8316
S'107-20-0'
p8317
sS's00002484'
p8318
S'16063-33-5'
p8319
sS's00009532'
p8320
S'17376-09-9'
p8321
sS's00002480'
p8322
S'338-65-8'
p8323
sS's00002481'
p8324
S'115523-12-1'
p8325
sS's00009736'
p8326
S'13693-09-9'
p8327
sS's00001170'
p8328
S'60948-99-4'
p8329
sS's00010836'
p8330
S'99260-59-0'
p8331
sS's00009595'
p8332
S'69103-83-9'
p8333
sS's00002800'
p8334
S'811-62-1'
p8335
sS's00002802'
p8336
S'30687-62-8'
p8337
sS's00002803'
p8338
S'41079-92-9'
p8339
sS's00010552'
p8340
S'51104-87-1'
p8341
sS's00002806'
p8342
S'1066-41-7'
p8343
sS's00002807'
p8344
S'917-72-6'
p8345
sS's00010837'
p8346
S'13701-91-2'
p8347
sS's00009594'
p8348
S'13536-94-2'
p8349
sS's00005461'
p8350
S'16063-22-2'
p8351
sS's00009534'
p8352
S'13932-10-0'
p8353
sS's00003959'
p8354
S'4520-67-6'
p8355
sS's00005669'
p8356
S'30395-19-8'
p8357
sS's00005668'
p8358
S'63976-17-0'
p8359
sS's00010296'
p8360
S'12164-97-5'
p8361
sS's00002614'
p8362
S'149101-19-9'
p8363
sS's00005661'
p8364
S'16972-33-1'
p8365
sS's00005660'
p8366
S'2344-15-2'
p8367
sS's00005663'
p8368
S'14879-42-6'
p8369
sS's00010299'
p8370
S'12137-25-6'
p8371
sS's00005665'
p8372
S'32312-17-7'
p8373
sS's00005664'
p8374
S'15651-51-1'
p8375
sS's00005666'
p8376
S'934-31-6'
p8377
sS's00010050'
p8378
S'23178-61-2'
p8379
sS's00010051'
p8380
S'91419-78-2'
p8381
sS's00010052'
p8382
S'13465-71-9'
p8383
sS's00010053'
p8384
S'13824-71-0'
p8385
sS's00010054'
p8386
S'14034-79-8'
p8387
sS's00010055'
p8388
S'62064-82-8'
p8389
sS's00010056'
p8390
S'50561-30-3'
p8391
sS's00010057'
p8392
S'12315-09-2'
p8393
sS's00010058'
p8394
S'13572-99-1'
p8395
sS's00010554'
p8396
S'64788-23-4'
p8397
sS's00002612'
p8398
S'118449-53-9'
p8399
sS's00000820'
p8400
S'65300-30-3'
p8401
sS's00000821'
p8402
S'72454-54-7'
p8403
sS's00000822'
p8404
S'20766-37-4'
p8405
sS's00005362'
p8406
S'289-70-3'
p8407
sS's00008197'
p8408
S'2039-87-4'
p8409
sS's00000824'
p8410
S'30626-03-0'
p8411
sS's00006451'
p8412
S'95-57-8'
p8413
sS's00006467'
p8414
S'367-12-4'
p8415
sS's00006450'
p8416
S'100-56-1'
p8417
sS's00000826'
p8418
S'55186-75-9'
p8419
sS's00006457'
p8420
S'58593-78-5'
p8421
sS's00000827'
p8422
S'2143-80-8'
p8423
sS's00006456'
p8424
S'2037-31-2'
p8425
sS's00002041'
p8426
S'70377-87-6'
p8427
sS's00006454'
p8428
S'78957-21-8'
p8429
sS's00005678'
p8430
S'28376-10-5'
p8431
sS's00005679'
p8432
S'344-07-0'
p8433
sS's00001424'
p8434
S'34883-43-7'
p8435
sS's00003447'
p8436
S'598-72-1'
p8437
sS's00005147'
p8438
S'17454-25-0'
p8439
sS's00009698'
p8440
S'23412-45-5'
p8441
sS's00010830'
p8442
S'12035-72-2'
p8443
sS's00002511'
p8444
S'75-02-5'
p8445
sS's00004410'
p8446
S'1003-04-9'
p8447
sS's00002110'
p8448
S'12243-39-9'
p8449
sS's00010711'
p8450
S'12012-35-0'
p8451
sS's00006362'
p8452
S'14524-92-6'
p8453
sS's00010710'
p8454
S'12068-77-8'
p8455
sS's00003958'
p8456
S'1516-65-0'
p8457
sS's00010717'
p8458
S'12184-84-8'
p8459
sS's00010716'
p8460
S'17693-79-7'
p8461
sS's00010715'
p8462
S'12181-16-7'
p8463
sS's00005579'
p8464
S'24254-20-4'
p8465
sS's00010714'
p8466
S'14452-69-8'
p8467
sS's00005578'
p8468
S'55980-41-1'
p8469
sS's00010872'
p8470
S'7439-89-6'
p8471
sS's00010873'
p8472
S'7439-89-6'
p8473
sS's00010870'
p8474
S'7440-70-2'
p8475
sS's00010871'
p8476
S'7440-70-2'
p8477
sS's00010876'
p8478
S'7439-89-6'
p8479
sS's00010877'
p8480
S'7758-94-3'
p8481
sS's00010874'
p8482
S'7439-89-6'
p8483
sS's00010875'
p8484
S'7439-89-6'
p8485
sS's00003649'
p8486
S'56019-38-6'
p8487
sS's00010878'
p8488
S'7758-94-3'
p8489
sS's00009692'
p8490
S'7783-56-4'
p8491
sS's00003648'
p8492
S'56019-37-5'
p8493
sS's00009955'
p8494
S'82323-93-1'
p8495
sS's00009693'
p8496
S'14835-14-4'
p8497
sS's00007496'
p8498
S'1783-81-9'
p8499
sS's00000445'
p8500
S'137452-18-7'
p8501
sS's00000032'
p8502
S'16603-84-2'
p8503
sS's00003043'
p8504
S'12071-35-1'
p8505
sS's00003042'
p8506
S'12071-31-7'
p8507
sS's00003040'
p8508
S'12175-91-6'
p8509
sS's00008137'
p8510
S'97229-07-7'
p8511
sS's00001979'
p8512
S'57820-96-9'
p8513
sS's00001978'
p8514
S'1274-07-3'
p8515
sS's00000244'
p8516
S'25771-21-5'
p8517
sS's00000245'
p8518
S'102-54-5'
p8519
sS's00000246'
p8520
S'1284-72-6'
p8521
sS's00000247'
p8522
S'1271-27-8'
p8523
sS's00000240'
p8524
S'1271-19-8'
p8525
sS's00000241'
p8526
S'1277-43-6'
p8527
sS's00000242'
p8528
S'1271-24-5'
p8529
sS's00000243'
p8530
S'42463-81-0'
p8531
sS's00007749'
p8532
S'106212-41-3'
p8533
sS's00007218'
p8534
S'623-03-0'
p8535
sS's00007219'
p8536
S'71407-77-7'
p8537
sS's00003443'
p8538
S'41407-21-0'
p8539
sS's00003640'
p8540
S'21119-13-1'
p8541
sS's00006589'
p8542
S'1277-45-8'
p8543
sS's00009280'
p8544
S'16982-22-2'
p8545
sS's00004258'
p8546
S'31450-06-3'
p8547
sS's00006581'
p8548
S'31819-07-5'
p8549
sS's00006580'
p8550
S'13679-64-6'
p8551
sS's00006582'
p8552
S'645-96-5'
p8553
sS's00006444'
p8554
S'95-56-7'
p8555
sS's00003911'
p8556
S'79991-58-5'
p8557
sS's00008989'
p8558
S'50311-48-3'
p8559
sS's00008988'
p8560
S'135659-54-0'
p8561
sS's00008983'
p8562
S'2264-21-3'
p8563
sS's00008982'
p8564
S'54393-39-4'
p8565
sS's00008981'
p8566
S'420-32-6'
p8567
sS's00008987'
p8568
S'334-99-6'
p8569
sS's00008986'
p8570
S'157066-31-4'
p8571
sS's00008985'
p8572
S'3802-95-7'
p8573
sS's00008984'
p8574
S'2314-97-8'
p8575
sS's00008833'
p8576
S'2687-12-9'
p8577
sS's00003488'
p8578
S'430-51-3'
p8579
sS's00006595'
p8580
S'150486-21-8'
p8581
sS's00000408'
p8582
S'4830-93-7'
p8583
sS's00000409'
p8584
S'59623-12-0'
p8585
sS's00000406'
p8586
S'515-40-2'
p8587
sS's00000407'
p8588
S'3972-56-3'
p8589
sS's00007364'
p8590
S'624-31-7'
p8591
sS's00000405'
p8592
S'3972-65-4'
p8593
sS's00000402'
p8594
S'60096-27-7'
p8595
sS's00000403'
p8596
S'1271-33-6'
p8597
sS's00000400'
p8598
S'6937-97-9'
p8599
sS's00000401'
p8600
S'65597-69-5'
p8601
sS's00009288'
p8602
S'51375-80-5'
p8603
sS's00001759'
p8604
S'14354-59-7'
p8605
sS's00010298'
p8606
S'1314-15-4'
p8607
sS's00000858'
p8608
S'59163-70-1'
p8609
sS's00009908'
p8610
S'289-56-5'
p8611
sS's00009909'
p8612
S'49860-18-6'
p8613
sS's00000624'
p8614
S'52735-49-6'
p8615
sS's00010458'
p8616
S'14791-69-6'
p8617
sS's00010459'
p8618
S'740-42-8'
p8619
sS's00000620'
p8620
S'72447-65-5'
p8621
sS's00000621'
p8622
S'72447-67-7'
p8623
sS's00010454'
p8624
S'24623-77-6'
p8625
sS's00010455'
p8626
S'1344-28-1'
p8627
sS's00010456'
p8628
S'1344-28-1'
p8629
sS's00009903'
p8630
S'13598-35-1'
p8631
sS's00009905'
p8632
S'7784-21-6'
p8633
sS's00000628'
p8634
S'26825-18-3'
p8635
sS's00000629'
p8636
S'34301-54-7'
p8637
sS's00008183'
p8638
S'1335-06-4'
p8639
sS's00000324'
p8640
S'31082-68-5'
p8641
sS's00008186'
p8642
S'2039-88-5'
p8643
sS's00008185'
p8644
S'2039-86-3'
p8645
sS's00008184'
p8646
S'2039-82-9'
p8647
sS's00003440'
p8648
S'590-13-6'
p8649
sS's00008189'
p8650
S'618-89-3'
p8651
sS's00008188'
p8652
S'610-94-6'
p8653
sS's00003486'
p8654
S'460-43-5'
p8655
sS's00008740'
p8656
S'688-71-1'
p8657
sS's00008745'
p8658
S'73300-45-5'
p8659
sS's00008744'
p8660
S'17513-58-5'
p8661
sS's00008749'
p8662
S'2327-88-0'
p8663
sS's00006447'
p8664
S'108-90-7'
p8665
sS's00004186'
p8666
S'161791-33-9'
p8667
sS's00004185'
p8668
S'407-59-0'
p8669
sS's00004184'
p8670
S'1683-88-1'
p8671
sS's00004183'
p8672
S'374-12-9'
p8673
sS's00004182'
p8674
S'590-91-0'
p8675
sS's00005877'
p8676
S'14272-25-4'
p8677
sS's00002966'
p8678
S'2680-01-5'
p8679
sS's00009998'
p8680
S'20768-67-6'
p8681
sS's00004189'
p8682
S'1515-14-6'
p8683
sS's00004188'
p8684
S'333-36-8'
p8685
sS's00001117'
p8686
S'945-51-7'
p8687
sS's00009449'
p8688
S'10025-85-1'
p8689
sS's00004435'
p8690
S'4399-47-7'
p8691
sS's00000759'
p8692
S'65173-83-3'
p8693
sS's00007452'
p8694
S'2810-04-0'
p8695
sS's00009996'
p8696
S'13967-01-6'
p8697
sS's00001119'
p8698
S'203-85-0'
p8699
sS's00001118'
p8700
S'139-66-2'
p8701
sS's00009340'
p8702
S'151-50-8'
p8703
sS's00009341'
p8704
S'546-93-0'
p8705
sS's00009588'
p8706
S'14989-24-3'
p8707
sS's00009589'
p8708
S'40712-39-8'
p8709
sS's00001594'
p8710
S'35684-26-5'
p8711
sS's00009584'
p8712
S'16873-17-9'
p8713
sS's00009585'
p8714
S'7782-39-0'
p8715
sS's00009587'
p8716
S'15117-84-7'
p8717
sS's00009580'
p8718
S'1317-38-0'
p8719
sS's00009581'
p8720
S'12019-06-6'
p8721
sS's00009582'
p8722
S'1317-40-4'
p8723
sS's00009583'
p8724
S'12054-11-4'
p8725
sS's00009166'
p8726
S'21351-18-8'
p8727
sS's00005695'
p8728
S'83168-67-6'
p8729
sS's00001379'
p8730
S'30746-58-8'
p8731
sS's00008979'
p8732
S'16566-10-2'
p8733
sS's00005690'
p8734
S'719-27-7'
p8735
sS's00005875'
p8736
S'592-88-1'
p8737
sS's00005876'
p8738
S'2720-41-4'
p8739
sS's00005286'
p8740
S'426-65-3'
p8741
sS's00005878'
p8742
S'50550-56-6'
p8743
sS's00001372'
p8744
S'993-63-5'
p8745
sS's00004030'
p8746
S'110-81-6'
p8747
sS's00001376'
p8748
S'974-68-5'
p8749
sS's00001375'
p8750
S'54935-70-5'
p8751
sS's00001374'
p8752
S'51956-20-8'
p8753
sS's00005052'
p8754
S'13401-56-4'
p8755
sS's00005053'
p8756
S'17913-18-7'
p8757
sS's00005050'
p8758
S'544-15-0'
p8759
sS's00005051'
p8760
S'17774-08-2'
p8761
sS's00005056'
p8762
S'55364-35-7'
p8763
sS's00005057'
p8764
S'541-28-6'
p8765
sS's00005054'
p8766
S'27160-24-3'
p8767
sS's00005055'
p8768
S'20733-05-5'
p8769
sS's00002813'
p8770
S'507-15-3'
p8771
sS's00005058'
p8772
S'594-38-7'
p8773
sS's00005059'
p8774
S'628-17-1'
p8775
sS's00004507'
p8776
S'2295-35-4'
p8777
sS's00004506'
p8778
S'3542-00-5'
p8779
sS's00002812'
p8780
S'406-34-8'
p8781
sS's00009107'
p8782
S'42217-97-0'
p8783
sS's00009760'
p8784
S'12061-70-0'
p8785
sS's00009761'
p8786
S'15499-23-7'
p8787
sS's00009762'
p8788
S'12159-89-6'
p8789
sS's00009763'
p8790
S'15181-47-2'
p8791
sS's00009764'
p8792
S'53664-05-4'
p8793
sS's00009765'
p8794
S'16027-92-2'
p8795
sS's00009766'
p8796
S'14986-72-2'
p8797
sS's00009767'
p8798
S'13446-74-7'
p8799
sS's00009768'
p8800
S'16068-96-5'
p8801
sS's00009769'
p8802
S'11128-24-8'
p8803
sS's00005900'
p8804
S'3794-80-7'
p8805
sS's00005901'
p8806
S'14273-86-0'
p8807
sS's00005902'
p8808
S'40058-87-5'
p8809
sS's00005903'
p8810
S'26168-37-6'
p8811
sS's00002272'
p8812
S'141632-18-0'
p8813
sS's00002903'
p8814
S'42087-73-0'
p8815
sS's00009019'
p8816
S'74-95-3'
p8817
sS's00002277'
p8818
S'694-17-7'
p8819
sS's00002276'
p8820
S'354-34-7'
p8821
sS's00002275'
p8822
S'58734-91-1'
p8823
sS's00002274'
p8824
S'116-14-3'
p8825
sS's00005580'
p8826
S'406-82-6'
p8827
sS's00005581'
p8828
S'406-06-4'
p8829
sS's00005582'
p8830
S'10117-11-0'
p8831
sS's00005583'
p8832
S'85288-92-2'
p8833
sS's00005584'
p8834
S'1556-18-9'
p8835
sS's00005585'
p8836
S'64987-88-8'
p8837
sS's00001915'
p8838
S'97245-28-8'
p8839
sS's00002473'
p8840
S'79-00-5'
p8841
sS's00002472'
p8842
S'71-55-6'
p8843
sS's00005272'
p8844
S'77825-99-1'
p8845
sS's00002474'
p8846
S'115-20-8'
p8847
sS's00005271'
p8848
S'98-03-3'
p8849
sS's00002479'
p8850
S'338-64-7'
p8851
sS's00002478'
p8852
S'75-68-3'
p8853
sS's00005288'
p8854
S'36664-93-4'
p8855
sS's00005278'
p8856
S'12240-42-5'
p8857
sS's00005279'
p8858
S'1270-98-0'
p8859
sS's00010110'
p8860
S'32750-86-0'
p8861
sS's00010113'
p8862
S'62470-71-7'
p8863
sS's00010112'
p8864
S'1310-82-3'
p8865
sS's00003229'
p8866
S'677-56-5'
p8867
sS's00010114'
p8868
S'62803-12-7'
p8869
sS's00010117'
p8870
S'12141-14-9'
p8871
sS's00010119'
p8872
S'13940-21-1'
p8873
sS's00010118'
p8874
S'13967-14-1'
p8875
sS's00003586'
p8876
S'627-31-6'
p8877
sS's00007409'
p8878
S'90929-07-0'
p8879
sS's00002359'
p8880
S'65064-76-8'
p8881
sS's00002875'
p8882
S'220625-27-4'
p8883
sS's00002874'
p8884
S'31452-29-6'
p8885
sS's00002876'
p8886
S'393794-52-0'
p8887
sS's00002871'
p8888
S'24521-77-5'
p8889
sS's00002870'
p8890
S'4542-61-4'
p8891
sS's00002872'
p8892
S'1066-35-9'
p8893
sS's00007223'
p8894
S'1194-02-1'
p8895
sS's00005404'
p8896
S'15679-19-3'
p8897
sS's00002615'
p8898
S'73166-79-7'
p8899
sS's00000982'
p8900
S'64638-07-9'
p8901
sS's00000981'
p8902
S'60917-67-1'
p8903
sS's00000980'
p8904
S'32156-25-5'
p8905
sS's00002610'
p8906
S'31366-17-3'
p8907
sS's00002613'
p8908
S'60203-82-9'
p8909
sS's00010147'
p8910
S'10476-86-5'
p8911
sS's00005406'
p8912
S'105643-80-9'
p8913
sS's00002619'
p8914
S'6118-19-0'
p8915
sS's00004130'
p8916
S'19259-08-6'
p8917
sS's00001804'
p8918
S'12088-11-8'
p8919
sS's00002585'
p8920
S'107-04-0'
p8921
sS's00007222'
p8922
S'403-54-3'
p8923
sS's00002587'
p8924
S'762-49-2'
p8925
sS's00002586'
p8926
S'593-96-4'
p8927
sS's00002581'
p8928
S'16520-14-2'
p8929
sS's00002580'
p8930
S'16520-00-6'
p8931
sS's00002583'
p8932
S'557-91-5'
p8933
sS's00002582'
p8934
S'106-93-4'
p8935
sS's00005673'
p8936
S'344-04-7'
p8937
sS's00002251'
p8938
S'17222-37-6'
p8939
sS's00002589'
p8940
S'397886-38-3'
p8941
sS's00005677'
p8942
S'118-74-1'
p8943
sS's00010025'
p8944
S'3400-09-7'
p8945
sS's00010026'
p8946
S'66106-83-0'
p8947
sS's00010021'
p8948
S'12400-28-1'
p8949
sS's00010020'
p8950
S'14452-75-6'
p8951
sS's00010023'
p8952
S'7647-01-0'
p8953
sS's00010022'
p8954
S'12177-67-2'
p8955
sS's00000215'
p8956
S'1146-65-2'
p8957
sS's00010029'
p8958
S'10025-78-2'
p8959
sS's00010028'
p8960
S'81323-72-0'
p8961
sS's00001405'
p8962
S'39227-53-7'
p8963
sS's00006518'
p8964
S'106-47-8'
p8965
sS's00009514'
p8966
S'7447-40-7'
p8967
sS's00003585'
p8968
S'37726-42-4'
p8969
sS's00002729'
p8970
S'430-67-1'
p8971
sS's00002728'
p8972
S'353-36-6'
p8973
sS's00007230'
p8974
S'934-36-1'
p8975
sS's00002053'
p8976
S'50654-35-8'
p8977
sS's00002720'
p8978
S'5505-49-7'
p8979
sS's00002725'
p8980
S'61599-84-6'
p8981
sS's00002724'
p8982
S'18998-80-6'
p8983
sS's00002727'
p8984
S'925-93-9'
p8985
sS's00002054'
p8986
S'36945-13-8'
p8987
sS's00002299'
p8988
S'50876-28-3'
p8989
sS's00002298'
p8990
S'23830-52-6'
p8991
sS's00002291'
p8992
S'1718-18-9'
p8993
sS's00002290'
p8994
S'927-84-4'
p8995
sS's00002293'
p8996
S'354-89-2'
p8997
sS's00002292'
p8998
S'359-62-6'
p8999
sS's00002294'
p9000
S'71701-41-2'
p9001
sS's00002297'
p9002
S'23830-51-5'
p9003
sS's00002296'
p9004
S'74-94-2'
p9005
sS's00010339'
p9006
S'1314-08-5'
p9007
sS's00010338'
p9008
S'1317-36-8'
p9009
sS's00000162'
p9010
S'15965-00-1'
p9011
sS's00000213'
p9012
S'95387-63-6'
p9013
sS's00000165'
p9014
S'7789-66-4'
p9015
sS's00010333'
p9016
S'12165-16-1'
p9017
sS's00010332'
p9018
S'10248-58-5'
p9019
sS's00010335'
p9020
S'12165-37-6'
p9021
sS's00010334'
p9022
S'1314-68-7'
p9023
sS's00010337'
p9024
S'14452-66-5'
p9025
sS's00010336'
p9026
S'117800-16-5'
p9027
s.