(dp1
S's00006770'
p2
S'105643-81-0'
p3
sS's00006774'
p4
S'1520-59-8'
p5
sS's00006775'
p6
S'13657-09-5'
p7
sS's00006779'
p8
S'777-97-9'
p9
sS's00000212'
p10
S'13682-02-5'
p11
sS's00003265'
p12
S'7747-84-4'
p13
sS's00004438'
p14
S'22037-73-6'
p15
sS's00009665'
p16
S'7783-42-8'
p17
sS's00003912'
p18
S'356-18-3'
p19
sS's00006378'
p20
S'694-80-4'
p21
sS's00009664'
p22
S'13709-32-5'
p23
sS's00006376'
p24
S'106-39-8'
p25
sS's00009294'
p26
S'1664-99-9'
p27
sS's00006372'
p28
S'13799-57-0'
p29
sS's00009195'
p30
S'117068-12-9'
p31
sS's00006370'
p32
S'2973-43-5'
p33
sS's00006371'
p34
S'2973-44-6'
p35
sS's00003458'
p36
S'96706-05-7'
p37
sS's00006979'
p38
S'1595-34-2'
p39
sS's00003451'
p40
S'557-98-2'
p41
sS's00003452'
p42
S'590-21-6'
p43
sS's00006118'
p44
S'111-25-1'
p45
sS's00006119'
p46
S'594-52-5'
p47
sS's00010847'
p48
S'12163-95-0'
p49
sS's00010844'
p50
S'30937-38-3'
p51
sS's00010843'
p52
S'12137-74-5'
p53
sS's00010841'
p54
S'13779-98-1'
p55
sS's00010840'
p56
S'41547-50-6'
p57
sS's00010849'
p58
S'13765-46-3'
p59
sS's00007516'
p60
S'41051-88-1'
p61
sS's00007513'
p62
S'602-94-8'
p63
sS's00006576'
p64
S'88-15-3'
p65
sS's00006579'
p66
S'1918-82-7'
p67
sS's00000503'
p68
S'69804-99-5'
p69
sS's00000502'
p70
S'92688-81-8'
p71
sS's00007221'
p72
S'394-47-8'
p73
sS's00000500'
p74
S'4170-72-3'
p75
sS's00003234'
p76
S'86880-31-1'
p77
sS's00010597'
p78
S'108402-57-9'
p79
sS's00010596'
p80
S'129793-02-8'
p81
sS's00006592'
p82
S'83774-09-8'
p83
sS's00010613'
p84
S'731798-94-0'
p85
sS's00008998'
p86
S'1495-48-3'
p87
sS's00008999'
p88
S'1495-50-7'
p89
sS's00008994'
p90
S'16282-67-0'
p91
sS's00008995'
p92
S'335-01-3'
p93
sS's00008997'
p94
S'22632-21-9'
p95
sS's00007425'
p96
S'328-57-4'
p97
sS's00007356'
p98
S'1861-00-3'
p99
sS's00007355'
p100
S'873-76-7'
p101
sS's00007426'
p102
S'74278-01-6'
p103
sS's00001812'
p104
S'14024-18-1'
p105
sS's00004846'
p106
S'14220-21-4'
p107
sS's00004847'
p108
S'647-71-2'
p109
sS's00004334'
p110
S'78087-13-5'
p111
sS's00004335'
p112
S'138709-60-1'
p113
sS's00004336'
p114
S'138709-61-2'
p115
sS's00002256'
p116
S'87458-21-7'
p117
sS's00004330'
p118
S'65087-61-8'
p119
sS's00004996'
p120
S'2094-92-0'
p121
sS's00004997'
p122
S'5862-47-5'
p123
sS's00007641'
p124
S'1549-45-7'
p125
sS's00007640'
p126
S'18246-09-8'
p127
sS's00007642'
p128
S'36375-71-0'
p129
sS's00004338'
p130
S'373-94-4'
p131
sS's00004339'
p132
S'381-66-8'
p133
sS's00000188'
p134
S'22655-59-0'
p135
sS's00009979'
p136
S'6569-51-3'
p137
sS's00000183'
p138
S'15605-95-5'
p139
sS's00000181'
p140
S'7787-70-4'
p141
sS's00009976'
p142
S'13598-78-2'
p143
sS's00009971'
p144
S'52227-38-0'
p145
sS's00009973'
p146
S'14537-73-6'
p147
sS's00009972'
p148
S'14565-98-1'
p149
sS's00004849'
p150
S'1759-63-3'
p151
sS's00008193'
p152
S'622-25-3'
p153
sS's00006379'
p154
S'26516-62-1'
p155
sS's00008198'
p156
S'36525-03-8'
p157
sS's00008753'
p158
S'12082-03-0'
p159
sS's00008754'
p160
S'705-28-2'
p161
sS's00008755'
p162
S'12082-08-5'
p163
sS's00009480'
p164
S'82867-85-4'
p165
sS's00009483'
p166
S'15654-66-7'
p167
sS's00009482'
p168
S'13470-14-9'
p169
sS's00000769'
p170
S'14586-49-3'
p171
sS's00000767'
p172
S'117-80-6'
p173
sS's00006429'
p174
S'273-92-7'
p175
sS's00009801'
p176
S'18283-93-7'
p177
sS's00009802'
p178
S'2377-80-2'
p179
sS's00009805'
p180
S'12008-19-4'
p181
sS's00009804'
p182
S'18433-84-6'
p183
sS's00000299'
p184
S'1796-63-0'
p185
sS's00000297'
p186
S'1796-72-1'
p187
sS's00009808'
p188
S'17702-41-9'
p189
sS's00009379'
p190
S'15923-87-2'
p191
sS's00000292'
p192
S'55116-57-9'
p193
sS's00000291'
p194
S'33709-41-0'
p195
sS's00000290'
p196
S'22913-11-7'
p197
sS's00009571'
p198
S'12018-61-0'
p199
sS's00009572'
p200
S'12331-83-8'
p201
sS's00001581'
p202
S'1580-19-4'
p203
sS's00001582'
p204
S'1580-20-7'
p205
sS's00009399'
p206
S'14977-61-8'
p207
sS's00009398'
p208
S'10049-05-5'
p209
sS's00005800'
p210
S'93037-56-0'
p211
sS's00005802'
p212
S'26650-62-4'
p213
sS's00001366'
p214
S'993-62-4'
p215
sS's00001367'
p216
S'2622-07-3'
p217
sS's00009396'
p218
S'7782-50-5'
p219
sS's00010618'
p220
S'63125-12-2'
p221
sS's00010619'
p222
S'591755-79-2'
p223
sS's00001161'
p224
S'69135-33-7'
p225
sS's00004046'
p226
S'2344-80-1'
p227
sS's00004047'
p228
S'25087-37-0'
p229
sS's00004044'
p230
S'5518-25-2'
p231
sS's00010144'
p232
S'14447-89-3'
p233
sS's00003105'
p234
S'422-77-5'
p235
sS's00008378'
p236
S'71777-61-2'
p237
sS's00004190'
p238
S'382-31-0'
p239
sS's00008376'
p240
S'402-32-4'
p241
sS's00008377'
p242
S'14062-80-7'
p243
sS's00009719'
p244
S'13819-84-6'
p245
sS's00009718'
p246
S'7783-66-6'
p247
sS's00002917'
p248
S'354-07-4'
p249
sS's00002914'
p250
S'359-08-0'
p251
sS's00009028'
p252
S'78818-97-0'
p253
sS's00002918'
p254
S'78957-22-9'
p255
sS's00002919'
p256
S'593-63-5'
p257
sS's00009023'
p258
S'312962-31-5'
p259
sS's00002269'
p260
S'6185-26-8'
p261
sS's00002462'
p262
S'87676-41-3'
p263
sS's00002460'
p264
S'19468-97-4'
p265
sS's00002469'
p266
S'131919-07-8'
p267
sS's00008890'
p268
S'71598-48-6'
p269
sS's00010142'
p270
S'10377-58-9'
p271
sS's00010106'
p272
S'61508-72-3'
p273
sS's00008075'
p274
S'25116-77-2'
p275
sS's00010104'
p276
S'14097-15-5'
p277
sS's00003026'
p278
S'12071-15-7'
p279
sS's00009628'
p280
S'12175-28-9'
p281
sS's00007210'
p282
S'1603-99-2'
p283
sS's00002869'
p284
S'20693-69-0'
p285
sS's00002867'
p286
S'865-37-2'
p287
sS's00002865'
p288
S'129944-33-8'
p289
sS's00009625'
p290
S'14530-76-8'
p291
sS's00009627'
p292
S'16087-68-6'
p293
sS's00010410'
p294
S'12210-79-6'
p295
sS's00009825'
p296
S'169127-14-4'
p297
sS's00002605'
p298
S'53422-48-3'
p299
sS's00003456'
p300
S'598-77-6'
p301
sS's00002600'
p302
S'6233-20-1'
p303
sS's00009062'
p304
S'75-11-6'
p305
sS's00009823'
p306
S'37805-57-5'
p307
sS's00002592'
p308
S'16519-99-6'
p309
sS's00002590'
p310
S'625114-37-6'
p311
sS's00003187'
p312
S'1631-73-8'
p313
sS's00010417'
p314
S'1315-06-6'
p315
sS's00002599'
p316
S'134984-60-4'
p317
sS's00010036'
p318
S'13931-97-0'
p319
sS's00010037'
p320
S'14994-20-8'
p321
sS's00010034'
p322
S'177778-92-6'
p323
sS's00010035'
p324
S'15880-17-8'
p325
sS's00010031'
p326
S'71572-35-5'
p327
sS's00008796'
p328
S'20488-11-3'
p329
sS's00006094'
p330
S'99051-59-9'
p331
sS's00010038'
p332
S'13772-47-9'
p333
sS's00010039'
p334
S'21351-79-1'
p335
sS's00003941'
p336
S'685-63-2'
p337
sS's00003946'
p338
S'17977-49-0'
p339
sS's00003947'
p340
S'685-24-5'
p341
sS's00002048'
p342
S'54039-38-2'
p343
sS's00002733'
p344
S'52922-59-5'
p345
sS's00002730'
p346
S'758-18-9'
p347
sS's00002737'
p348
S'55661-06-8'
p349
sS's00001768'
p350
S'19771-12-1'
p351
sS's00002288'
p352
S'372-63-4'
p353
sS's00002289'
p354
S'2154-71-4'
p355
sS's00002282'
p356
S'354-72-3'
p357
sS's00002283'
p358
S'93625-14-0'
p359
sS's00002286'
p360
S'359-64-8'
p361
sS's00002287'
p362
S'1479-46-5'
p363
sS's00003747'
p364
S'31452-21-8'
p365
sS's00010322'
p366
S'1344-54-3'
p367
sS's00010323'
p368
S'1344-58-7'
p369
sS's00006270'
p370
S'1115-99-7'
p371
sS's00010325'
p372
S'12259-68-6'
p373
sS's00006747'
p374
S'1860-21-5'
p375
sS's00006746'
p376
S'24253-56-3'
p377
sS's00006741'
p378
S'77379-00-1'
p379
sS's00007215'
p380
S'88-16-4'
p381
sS's00006749'
p382
S'56663-75-3'
p383
sS's00001767'
p384
S'19771-11-0'
p385
sS's00003125'
p386
S'84752-88-5'
p387
sS's00010850'
p388
S'24203-25-6'
p389
sS's00010856'
p390
S'7440-42-8'
p391
sS's00010857'
p392
S'7440-42-8'
p393
sS's00001428'
p394
S'405-31-2'
p395
sS's00000526'
p396
S'122519-91-9'
p397
sS's00003126'
p398
S'2102-19-4'
p399
sS's00001950'
p400
S'603-32-7'
p401
sS's00001957'
p402
S'3878-45-3'
p403
sS's00001956'
p404
S'603-35-0'
p405
sS's00010580'
p406
S'98206-69-0'
p407
sS's00009238'
p408
S'393794-51-9'
p409
sS's00003030'
p410
S'55186-09-9'
p411
sS's00006474'
p412
S'77461-06-4'
p413
sS's00010612'
p414
S'591755-78-1'
p415
sS's00009239'
p416
S'442198-04-1'
p417
sS's00008960'
p418
S'26443-88-9'
p419
sS's00008965'
p420
S'558-04-3'
p421
sS's00008964'
p422
S'95758-74-0'
p423
sS's00008969'
p424
S'90965-57-4'
p425
sS's00000296'
p426
S'1796-71-0'
p427
sS's00007344'
p428
S'95-49-8'
p429
sS's00007345'
p430
S'100-44-7'
p431
sS's00007346'
p432
S'106-43-4'
p433
sS's00007347'
p434
S'108-41-8'
p435
sS's00006125'
p436
S'544-10-5'
p437
sS's00006124'
p438
S'51116-73-5'
p439
sS's00001771'
p440
S'68825-40-1'
p441
sS's00001770'
p442
S'68825-39-8'
p443
sS's00004067'
p444
S'443784-33-6'
p445
sS's00000352'
p446
S'779-69-1'
p447
sS's00000353'
p448
S'121329-75-7'
p449
sS's00000198'
p450
S'40423-14-1'
p451
sS's00003550'
p452
S'22451-18-9'
p453
sS's00003553'
p454
S'438543-92-1'
p455
sS's00003552'
p456
S'38816-79-4'
p457
sS's00000194'
p458
S'14519-11-0'
p459
sS's00000195'
p460
S'13967-29-8'
p461
sS's00010736'
p462
S'23444-30-6'
p463
sS's00007220'
p464
S'402-44-8'
p465
sS's00007238'
p466
S'98-07-7'
p467
sS's00008766'
p468
S'4513-41-1'
p469
sS's00004853'
p470
S'14100-30-2'
p471
sS's00004852'
p472
S'72408-80-1'
p473
sS's00004855'
p474
S'26319-33-5'
p475
sS's00004854'
p476
S'14099-01-5'
p477
sS's00004857'
p478
S'54927-77-4'
p479
sS's00004856'
p480
S'7426-92-8'
p481
sS's00004859'
p482
S'5152-54-5'
p483
sS's00004858'
p484
S'92177-14-5'
p485
sS's00008768'
p486
S'395-45-9'
p487
sS's00009496'
p488
S'24801-48-7'
p489
sS's00009494'
p490
S'7758-89-6'
p491
sS's00009492'
p492
S'87331-16-6'
p493
sS's00009493'
p494
S'95860-64-3'
p495
sS's00009490'
p496
S'12715-99-0'
p497
sS's00004454'
p498
S'76118-61-1'
p499
sS's00008141'
p500
S'934-85-0'
p501
sS's00008140'
p502
S'68006-17-7'
p503
sS's00000773'
p504
S'1825-31-6'
p505
sS's00000774'
p506
S'1762-41-0'
p507
sS's00003232'
p508
S'78522-47-1'
p509
sS's00000280'
p510
S'1796-61-8'
p511
sS's00009365'
p512
S'155941-09-6'
p513
sS's00009366'
p514
S'12326-85-1'
p515
sS's00009811'
p516
S'14457-65-9'
p517
sS's00000284'
p518
S'1796-70-9'
p519
sS's00000285'
p520
S'19759-34-3'
p521
sS's00000287'
p522
S'1796-62-9'
p523
sS's00000288'
p524
S'19759-26-3'
p525
sS's00000289'
p526
S'19759-43-4'
p527
sS's00009369'
p528
S'15644-49-2'
p529
sS's00003956'
p530
S'382-21-8'
p531
sS's00002593'
p532
S'16520-13-1'
p533
sS's00009563'
p534
S'12184-83-7'
p535
sS's00009567'
p536
S'12331-81-6'
p537
sS's00009568'
p538
S'12018-59-6'
p539
sS's00009569'
p540
S'12018-60-9'
p541
sS's00001393'
p542
S'26914-33-0'
p543
sS's00001392'
p544
S'2437-79-8'
p545
sS's00001399'
p546
S'16606-02-3'
p547
sS's00010622'
p548
S'626-00-6'
p549
sS's00010620'
p550
S'29382-90-9'
p551
sS's00010627'
p552
S'542813-69-4'
p553
sS's00004078'
p554
S'928-05-2'
p555
sS's00004075'
p556
S'92063-67-7'
p557
sS's00003918'
p558
S'64771-59-1'
p559
sS's00005702'
p560
S'3109-91-9'
p561
sS's00003466'
p562
S'40510-81-4'
p563
sS's00010609'
p564
S'591755-77-0'
p565
sS's00009706'
p566
S'13774-85-1'
p567
sS's00009301'
p568
S'114282-88-1'
p569
sS's00009702'
p570
S'17026-29-8'
p571
sS's00001485'
p572
S'2491-56-7'
p573
sS's00009709'
p574
S'13455-15-7'
p575
sS's00009030'
p576
S'1558-25-4'
p577
sS's00009031'
p578
S'593-70-4'
p579
sS's00009033'
p580
S'443690-18-4'
p581
sS's00009034'
p582
S'497952-36-0'
p583
sS's00002922'
p584
S'13245-53-9'
p585
sS's00005703'
p586
S'756-13-8'
p587
sS's00009037'
p588
S'114282-89-2'
p589
sS's00009038'
p590
S'222555-69-3'
p591
sS's00005250'
p592
S'84520-95-6'
p593
sS's00002456'
p594
S'17157-48-1'
p595
sS's00002455'
p596
S'506-96-7'
p597
sS's00002454'
p598
S'16188-37-7'
p599
sS's00002452'
p600
S'115523-13-2'
p601
sS's00002451'
p602
S'420-43-9'
p603
sS's00006981'
p604
S'114646-23-0'
p605
sS's00002459'
p606
S'93843-97-1'
p607
sS's00010137'
p608
S'12281-10-6'
p609
sS's00010131'
p610
S'12029-22-0'
p611
sS's00010130'
p612
S'7440-58-6'
p613
sS's00006982'
p614
S'18068-26-3'
p615
sS's00004679'
p616
S'54261-38-0'
p617
sS's00009638'
p618
S'12020-61-0'
p619
sS's00002855'
p620
S'76274-47-0'
p621
sS's00009632'
p622
S'13813-42-8'
p623
sS's00009633'
p624
S'12280-61-4'
p625
sS's00009630'
p626
S'16087-67-5'
p627
sS's00009631'
p628
S'16087-65-3'
p629
sS's00009636'
p630
S'12020-60-9'
p631
sS's00009637'
p632
S'88762-30-5'
p633
sS's00002639'
p634
S'292832-78-1'
p635
sS's00002638'
p636
S'24901-66-4'
p637
sS's00002633'
p638
S'359-15-9'
p639
sS's00002631'
p640
S'65167-95-5'
p641
sS's00002635'
p642
S'15403-23-3'
p643
sS's00002634'
p644
S'753-90-2'
p645
sS's00010576'
p646
S'591755-74-7'
p647
sS's00009439'
p648
S'11094-65-8'
p649
sS's00004704'
p650
S'513-36-0'
p651
sS's00004707'
p652
S'543-63-5'
p653
sS's00004706'
p654
S'17776-56-6'
p655
sS's00007350'
p656
S'68364-30-7'
p657
sS's00007357'
p658
S'4409-83-0'
p659
sS's00009120'
p660
S'15454-33-8'
p661
sS's00000991'
p662
S'65512-08-5'
p663
sS's00002444'
p664
S'38156-25-1'
p665
sS's00002705'
p666
S'74-96-4'
p667
sS's00002704'
p668
S'43337-53-7'
p669
sS's00002702'
p670
S'146895-04-7'
p671
sS's00002701'
p672
S'132046-53-8'
p673
sS's00002700'
p674
S'425371-30-8'
p675
sS's00010128'
p676
S'12184-98-4'
p677
sS's00001811'
p678
S'21679-31-2'
p679
sS's00010318'
p680
S'12036-36-1'
p681
sS's00006285'
p682
S'78-40-0'
p683
sS's00006282'
p684
S'126-68-1'
p685
sS's00006283'
p686
S'2651-89-0'
p687
sS's00006281'
p688
S'122-52-1'
p689
sS's00004337'
p690
S'24330-31-2'
p691
sS's00010089'
p692
S'29335-37-3'
p693
sS's00002140'
p694
S'359-55-7'
p695
sS's00004333'
p696
S'78087-12-4'
p697
sS's00006358'
p698
S'13601-24-6'
p699
sS's00004998'
p700
S'38103-97-8'
p701
sS's00000935'
p702
S'33274-44-1'
p703
sS's00004999'
p704
S'38302-75-9'
p705
sS's00010828'
p706
S'12035-51-7'
p707
sS's00010827'
p708
S'12035-51-7'
p709
sS's00010826'
p710
S'14782-23-1'
p711
sS's00003433'
p712
S'356535-02-9'
p713
sS's00010823'
p714
S'10578-16-2'
p715
sS's00007530'
p716
S'25463-33-6'
p717
sS's00003132'
p718
S'356535-05-2'
p719
sS's00005709'
p720
S'13601-14-4'
p721
sS's00006750'
p722
S'19258-85-6'
p723
sS's00006751'
p724
S'65330-65-6'
p725
sS's00010814'
p726
S'19067-62-0'
p727
sS's00010607'
p728
S'591755-75-8'
p729
sS's00004542'
p730
S'55615-38-8'
p731
sS's00003722'
p732
S'69165-81-7'
p733
sS's00003467'
p734
S'1117-89-1'
p735
sS's00008972'
p736
S'3889-75-6'
p737
sS's00008976'
p738
S'17409-94-8'
p739
sS's00008974'
p740
S'66720-78-3'
p741
sS's00008975'
p742
S'157066-33-6'
p743
sS's00000187'
p744
S'15607-89-3'
p745
sS's00008978'
p746
S'126463-76-1'
p747
sS's00006130'
p748
S'62016-93-7'
p749
sS's00006131'
p750
S'62016-94-8'
p751
sS's00006133'
p752
S'15972-93-7'
p753
sS's00010506'
p754
S'311-81-9'
p755
sS's00010507'
p756
S'118449-56-2'
p757
sS's00003890'
p758
S'52931-58-5'
p759
sS's00003892'
p760
S'59982-49-9'
p761
sS's00003893'
p762
S'109545-35-9'
p763
sS's00003894'
p764
S'719287-23-7'
p765
sS's00009953'
p766
S'666816-46-2'
p767
sS's00008770'
p768
S'402-50-6'
p769
sS's00008771'
p770
S'52144-69-1'
p771
sS's00009602'
p772
S'13762-95-3'
p773
sS's00004845'
p774
S'14516-54-2'
p775
sS's00007245'
p776
S'2154-54-3'
p777
sS's00007247'
p778
S'3592-47-0'
p779
sS's00003135'
p780
S'39091-63-9'
p781
sS's00001165'
p782
S'12129-69-0'
p783
sS's00001162'
p784
S'69135-34-8'
p785
sS's00001160'
p786
S'69135-32-6'
p787
sS's00009827'
p788
S'7787-52-2'
p789
sS's00009299'
p790
S'1493-03-4'
p791
sS's00009824'
p792
S'15119-97-8'
p793
sS's00008559'
p794
S'17881-63-9'
p795
sS's00009554'
p796
S'13943-42-5'
p797
sS's00001765'
p798
S'19771-07-4'
p799
sS's00001766'
p800
S'19771-10-9'
p801
sS's00009558'
p802
S'12018-01-8'
p803
sS's00001387'
p804
S'94650-53-0'
p805
sS's00005001'
p806
S'82810-49-9'
p807
sS's00005000'
p808
S'71240-37-4'
p809
sS's00004063'
p810
S'28576-83-2'
p811
sS's00004066'
p812
S'20670-29-5'
p813
sS's00009424'
p814
S'12381-09-8'
p815
sS's00004068'
p816
S'443901-81-3'
p817
sS's00010639'
p818
S'95896-89-2'
p819
sS's00000017'
p820
S'12187-06-3'
p821
sS's00009738'
p822
S'13966-78-4'
p823
sS's00002235'
p824
S'144514-02-3'
p825
sS's00009735'
p826
S'7783-82-6'
p827
sS's00000386'
p828
S'78725-88-9'
p829
sS's00001498'
p830
S'146879-90-5'
p831
sS's00002233'
p832
S'63403-57-6'
p833
sS's00009044'
p834
S'5581-55-5'
p835
sS's00009046'
p836
S'35692-88-7'
p837
sS's00009041'
p838
S'676-55-1'
p839
sS's00009040'
p840
S'10457-11-1'
p841
sS's00009043'
p842
S'73344-94-2'
p843
sS's00002441'
p844
S'157-20-0'
p845
sS's00002446'
p846
S'356534-99-1'
p847
sS's00010129'
p848
S'12162-16-2'
p849
sS's00005712'
p850
S'4605-23-6'
p851
sS's00010123'
p852
S'13776-99-3'
p853
sS's00010125'
p854
S'13981-87-8'
p855
sS's00010126'
p856
S'13940-37-9'
p857
sS's00001065'
p858
S'12093-05-9'
p859
sS's00005706'
p860
S'354-96-1'
p861
sS's00003193'
p862
S'18365-18-9'
p863
sS's00002239'
p864
S'52183-15-0'
p865
sS's00009606'
p866
S'13537-08-1'
p867
sS's00009605'
p868
S'20396-66-1'
p869
sS's00009603'
p870
S'13537-07-0'
p871
sS's00009601'
p872
S'13537-06-9'
p873
sS's00002624'
p874
S'23072-56-2'
p875
sS's00002626'
p876
S'77938-53-5'
p877
sS's00002627'
p878
S'28761-00-4'
p879
sS's00002621'
p880
S'38454-87-4'
p881
sS's00002622'
p882
S'23705-67-1'
p883
sS's00002623'
p884
S'3652-85-5'
p885
sS's00010019'
p886
S'17740-82-8'
p887
sS's00010014'
p888
S'12009-08-4'
p889
sS's00010015'
p890
S'13597-97-2'
p891
sS's00010016'
p892
S'20768-68-7'
p893
sS's00010011'
p894
S'20611-59-0'
p895
sS's00002931'
p896
S'147703-27-3'
p897
sS's00002933'
p898
S'63034-44-6'
p899
sS's00000043'
p900
S'11092-32-3'
p901
sS's00000041'
p902
S'58875-12-0'
p903
sS's00002710'
p904
S'19469-04-6'
p905
sS's00002716'
p906
S'594-01-4'
p907
sS's00005530'
p908
S'40697-99-2'
p909
sS's00010303'
p910
S'53238-43-0'
p911
sS's00009370'
p912
S'16674-18-3'
p913
sS's00009376'
p914
S'15606-71-0'
p915
sS's00002155'
p916
S'52434-78-3'
p917
sS's00002153'
p918
S'354-31-4'
p919
sS's00002151'
p920
S'129357-94-4'
p921
sS's00002158'
p922
S'12012-32-7'
p923
sS's00000951'
p924
S'15733-63-8'
p925
sS's00000954'
p926
S'132536-25-5'
p927
sS's00003477'
p928
S'1959-79-1'
p929
sS's00009378'
p930
S'13827-26-4'
p931
sS's00006437'
p932
S'97073-99-9'
p933
sS's00006382'
p934
S'3474-42-8'
p935
sS's00006381'
p936
S'3474-40-6'
p937
sS's00006380'
p938
S'2396-00-1'
p939
sS's00006471'
p940
S'31819-08-6'
p941
sS's00003169'
p942
S'114070-49-4'
p943
sS's00007524'
p944
S'105311-64-6'
p945
sS's00007525'
p946
S'6060-61-3'
p947
sS's00007520'
p948
S'36608-07-8'
p949
sS's00007521'
p950
S'105311-61-3'
p951
sS's00007522'
p952
S'105311-62-4'
p953
sS's00007523'
p954
S'105311-63-5'
p955
sS's00007528'
p956
S'26842-85-3'
p957
sS's00008622'
p958
S'16629-52-0'
p959
sS's00007093'
p960
S'57660-96-5'
p961
sS's00008946'
p962
S'6142-51-4'
p963
sS's00008945'
p964
S'63562-23-2'
p965
sS's00008943'
p966
S'21536-39-0'
p967
sS's00008949'
p968
S'106611-84-1'
p969
sS's00003393'
p970
S'460-37-7'
p971
sS's00003392'
p972
S'2980-46-3'
p973
sS's00003396'
p974
S'132046-92-5'
p975
sS's00003395'
p976
S'4168-09-6'
p977
sS's00007895'
p978
S'1073-61-6'
p979
sS's00003573'
p980
S'58308-67-1'
p981
sS's00003572'
p982
S'38816-77-2'
p983
sS's00003571'
p984
S'77938-58-0'
p985
sS's00003570'
p986
S'2875-95-8'
p987
sS's00003577'
p988
S'65149-64-6'
p989
sS's00003576'
p990
S'430-61-5'
p991
sS's00003574'
p992
S'153619-89-7'
p993
sS's00000173'
p994
S'13517-13-0'
p995
sS's00000170'
p996
S'82867-86-5'
p997
sS's00000176'
p998
S'10024-43-8'
p999
sS's00000175'
p1000
S'33517-16-7'
p1001
sS's00003375'
p1002
S'1517-49-3'
p1003
sS's00003377'
p1004
S'65146-94-3'
p1005
sS's00003376'
p1006
S'35438-33-6'
p1007
sS's00007576'
p1008
S'135707-05-0'
p1009
sS's00007575'
p1010
S'2355-86-4'
p1011
sS's00004877'
p1012
S'3109-87-3'
p1013
sS's00009391'
p1014
S'12014-82-3'
p1015
sS's00004873'
p1016
S'71743-89-0'
p1017
sS's00004872'
p1018
S'81747-61-7'
p1019
sS's00004871'
p1020
S'1514-90-5'
p1021
sS's00004879'
p1022
S'105311-65-7'
p1023
sS's00004878'
p1024
S'6606-30-0'
p1025
sS's00008121'
p1026
S'3240-11-7'
p1027
sS's00008123'
p1028
S'2561-17-3'
p1029
sS's00008122'
p1030
S'766-98-3'
p1031
sS's00001159'
p1032
S'69135-31-5'
p1033
sS's00009549'
p1034
S'13943-41-4'
p1035
sS's00010543'
p1036
S'38784-58-6'
p1037
sS's00009542'
p1038
S'14989-32-3'
p1039
sS's00009544'
p1040
S'13966-57-9'
p1041
sS's00009546'
p1042
S'14989-33-4'
p1043
sS's00009547'
p1044
S'20190-06-1'
p1045
sS's00009592'
p1046
S'6909-54-2'
p1047
sS's00005188'
p1048
S'17336-78-6'
p1049
sS's00007616'
p1050
S'125294-43-1'
p1051
sS's00005018'
p1052
S'24770-21-6'
p1053
sS's00005017'
p1054
S'55613-72-4'
p1055
sS's00005014'
p1056
S'99268-84-5'
p1057
sS's00000523'
p1058
S'1833-32-5'
p1059
sS's00001025'
p1060
S'36375-61-8'
p1061
sS's00007205'
p1062
S'23138-94-5'
p1063
sS's00001538'
p1064
S'84507-47-1'
p1065
sS's00003121'
p1066
S'58168-83-5'
p1067
sS's00000399'
p1068
S'107701-34-8'
p1069
sS's00009729'
p1070
S'90457-58-2'
p1071
sS's00009720'
p1072
S'69275-85-0'
p1073
sS's00009721'
p1074
S'23377-53-9'
p1075
sS's00009722'
p1076
S'69275-84-9'
p1077
sS's00009056'
p1078
S'373-53-5'
p1079
sS's00009057'
p1080
S'32360-83-1'
p1081
sS's00009054'
p1082
S'91379-14-5'
p1083
sS's00009050'
p1084
S'79825-54-0'
p1085
sS's00005329'
p1086
S'80997-33-7'
p1087
sS's00009058'
p1088
S'114282-87-0'
p1089
sS's00009059'
p1090
S'117068-13-0'
p1091
sS's00005700'
p1092
S'1858-56-6'
p1093
sS's00010158'
p1094
S'14696-81-2'
p1095
sS's00005704'
p1096
S'4520-08-5'
p1097
sS's00010150'
p1098
S'99260-54-5'
p1099
sS's00010796'
p1100
S'58790-40-3'
p1101
sS's00009614'
p1102
S'15123-00-9'
p1103
sS's00009617'
p1104
S'13759-76-7'
p1105
sS's00005386'
p1106
S'383-66-4'
p1107
sS's00005384'
p1108
S'75121-40-3'
p1109
sS's00005385'
p1110
S'75121-41-4'
p1111
sS's00005383'
p1112
S'674-51-1'
p1113
sS's00005381'
p1114
S'97989-40-7'
p1115
sS's00002382'
p1116
S'23724-60-9'
p1117
sS's00002381'
p1118
S'153143-06-7'
p1119
sS's00002387'
p1120
S'26456-53-1'
p1121
sS's00002385'
p1122
S'492470-50-5'
p1123
sS's00002388'
p1124
S'7049-95-8'
p1125
sS's00002893'
p1126
S'42087-66-1'
p1127
sS's00004724'
p1128
S'754-25-6'
p1129
sS's00004720'
p1130
S'359-00-2'
p1131
sS's00009771'
p1132
S'13966-74-0'
p1133
sS's00002947'
p1134
S'23425-39-0'
p1135
sS's00002946'
p1136
S'23273-90-7'
p1137
sS's00003220'
p1138
S'64724-05-6'
p1139
sS's00003879'
p1140
S'159562-45-5'
p1141
sS's00002760'
p1142
S'26185-93-3'
p1143
sS's00001813'
p1144
S'14284-89-0'
p1145
sS's00000817'
p1146
S'6889-73-2'
p1147
sS's00000818'
p1148
S'78646-50-1'
p1149
sS's00009950'
p1150
S'20424-84-4'
p1151
sS's00009413'
p1152
S'86170-90-3'
p1153
sS's00010379'
p1154
S'12596-92-8'
p1155
sS's00009228'
p1156
S'93895-87-5'
p1157
sS's00002167'
p1158
S'147703-37-5'
p1159
sS's00002166'
p1160
S'38000-89-4'
p1161
sS's00002165'
p1162
S'32197-21-0'
p1163
sS's00002261'
p1164
S'81127-98-2'
p1165
sS's00010457'
p1166
S'1344-28-1'
p1167
sS's00002262'
p1168
S'692-74-0'
p1169
sS's00002360'
p1170
S'138689-24-4'
p1171
sS's00002363'
p1172
S'51303-98-1'
p1173
sS's00002362'
p1174
S'41970-14-3'
p1175
sS's00002365'
p1176
S'157171-29-4'
p1177
sS's00002364'
p1178
S'67708-74-1'
p1179
sS's00002367'
p1180
S'65881-80-3'
p1181
sS's00010209'
p1182
S'63172-13-4'
p1183
sS's00002814'
p1184
S'106693-86-1'
p1185
sS's00010201'
p1186
S'12136-56-0'
p1187
sS's00010202'
p1188
S'12031-70-8'
p1189
sS's00010204'
p1190
S'12032-02-9'
p1191
sS's00010206'
p1192
S'29904-79-8'
p1193
sS's00010803'
p1194
S'1317-35-7'
p1195
sS's00010805'
p1196
S'12033-08-8'
p1197
sS's00010804'
p1198
S'1317-35-7'
p1199
sS's00006398'
p1200
S'23907-73-5'
p1201
sS's00010808'
p1202
S'12125-23-4'
p1203
sS's00009022'
p1204
S'312962-30-4'
p1205
sS's00006673'
p1206
S'30353-57-2'
p1207
sS's00005245'
p1208
S'1513-88-8'
p1209
sS's00006671'
p1210
S'14225-24-2'
p1211
sS's00006670'
p1212
S'14225-23-1'
p1213
sS's00008324'
p1214
S'113962-85-9'
p1215
sS's00008838'
p1216
S'107701-36-0'
p1217
sS's00008837'
p1218
S'107701-35-9'
p1219
sS's00008836'
p1220
S'87154-98-1'
p1221
sS's00001810'
p1222
S'13963-57-0'
p1223
sS's00002461'
p1224
S'23273-86-1'
p1225
sS's00006734'
p1226
S'89027-60-1'
p1227
sS's00009170'
p1228
S'22223-61-6'
p1229
sS's00004148'
p1230
S'53006-34-1'
p1231
sS's00008956'
p1232
S'500777-48-0'
p1233
sS's00009539'
p1234
S'17167-55-4'
p1235
sS's00007466'
p1236
S'37773-21-0'
p1237
sS's00003386'
p1238
S'430-63-7'
p1239
sS's00003387'
p1240
S'558-29-2'
p1241
sS's00003382'
p1242
S'15068-78-7'
p1243
sS's00004317'
p1244
S'53220-07-8'
p1245
sS's00004569'
p1246
S'115523-06-3'
p1247
sS's00003569'
p1248
S'74590-03-7'
p1249
sS's00004568'
p1250
S'70628-12-5'
p1251
sS's00003560'
p1252
S'39841-31-1'
p1253
sS's00003561'
p1254
S'41895-36-7'
p1255
sS's00000147'
p1256
S'25601-01-8'
p1257
sS's00000143'
p1258
S'12431-56-0'
p1259
sS's00000141'
p1260
S'12380-84-6'
p1261
sS's00003363'
p1262
S'6565-20-4'
p1263
sS's00004868'
p1264
S'73646-90-9'
p1265
sS's00004869'
p1266
S'6129-04-0'
p1267
sS's00004256'
p1268
S'1524-26-1'
p1269
sS's00004861'
p1270
S'2102-16-1'
p1271
sS's00004863'
p1272
S'6611-46-7'
p1273
sS's00004864'
p1274
S'83891-08-1'
p1275
sS's00004867'
p1276
S'73646-89-6'
p1277
sS's00007261'
p1278
S'38548-46-8'
p1279
sS's00003858'
p1280
S'54041-00-8'
p1281
sS's00004465'
p1282
S'51486-48-7'
p1283
sS's00004466'
p1284
S'1560-59-4'
p1285
sS's00004467'
p1286
S'60053-18-1'
p1287
sS's00004250'
p1288
S'381-61-3'
p1289
sS's00001148'
p1290
S'12093-81-1'
p1291
sS's00001149'
p1292
S'12129-67-8'
p1293
sS's00004263'
p1294
S'37826-35-0'
p1295
sS's00009849'
p1296
S'35427-70-4'
p1297
sS's00009841'
p1298
S'33945-66-3'
p1299
sS's00003960'
p1300
S'4556-26-7'
p1301
sS's00003961'
p1302
S'4556-27-8'
p1303
sS's00003964'
p1304
S'354-93-8'
p1305
sS's00003157'
p1306
S'80610-15-7'
p1307
sS's00003966'
p1308
S'53759-15-2'
p1309
sS's00003967'
p1310
S'14911-55-8'
p1311
sS's00003968'
p1312
S'54806-22-3'
p1313
sS's00003969'
p1314
S'15281-98-8'
p1315
sS's00009537'
p1316
S'53169-26-9'
p1317
sS's00010572'
p1318
S'591768-87-5'
p1319
sS's00009533'
p1320
S'32582-12-0'
p1321
sS's00007297'
p1322
S'95080-04-9'
p1323
sS's00009091'
p1324
S'79435-76-0'
p1325
sS's00005022'
p1326
S'20582-83-6'
p1327
sS's00005025'
p1328
S'81193-96-6'
p1329
sS's00005024'
p1330
S'69519-01-3'
p1331
sS's00010832'
p1332
S'12137-12-1'
p1333
sS's00009621'
p1334
S'13587-55-8'
p1335
sS's00003916'
p1336
S'3934-26-7'
p1337
sS's00001523'
p1338
S'34807-89-1'
p1339
sS's00000037'
p1340
S'13569-23-8'
p1341
sS's00000036'
p1342
S'13595-82-9'
p1343
sS's00009151'
p1344
S'129064-96-6'
p1345
sS's00009283'
p1346
S'35645-04-6'
p1347
sS's00009282'
p1348
S'4960-87-6'
p1349
sS's00009281'
p1350
S'10457-12-2'
p1351
sS's00009287'
p1352
S'676-80-2'
p1353
sS's00009443'
p1354
S'13569-55-6'
p1355
sS's00009444'
p1356
S'13465-85-5'
p1357
sS's00009999'
p1358
S'12628-08-9'
p1359
sS's00009995'
p1360
S'19624-22-7'
p1361
sS's00009992'
p1362
S'66455-86-5'
p1363
sS's00005283'
p1364
S'85984-39-0'
p1365
sS's00005281'
p1366
S'34729-63-0'
p1367
sS's00005280'
p1368
S'21129-16-8'
p1369
sS's00004649'
p1370
S'82810-48-8'
p1371
sS's00004646'
p1372
S'14919-12-1'
p1373
sS's00010143'
p1374
S'12401-65-9'
p1375
sS's00010141'
p1376
S'37279-36-0'
p1377
sS's00000076'
p1378
S'12429-33-3'
p1379
sS's00010786'
p1380
S'748-88-9'
p1381
sS's00010787'
p1382
S'748-88-9'
p1383
sS's00010780'
p1384
S'14332-53-7'
p1385
sS's00010781'
p1386
S'14332-62-8'
p1387
sS's00010782'
p1388
S'60195-15-5'
p1389
sS's00010783'
p1390
S'60172-61-4'
p1391
sS's00009197'
p1392
S'422506-69-2'
p1393
sS's00009196'
p1394
S'422506-68-1'
p1395
sS's00009194'
p1396
S'100993-96-2'
p1397
sS's00009663'
p1398
S'13536-85-1'
p1399
sS's00009199'
p1400
S'437762-35-1'
p1401
sS's00009198'
p1402
S'422506-70-5'
p1403
sS's00002396'
p1404
S'54882-20-1'
p1405
sS's00002397'
p1406
S'95054-92-5'
p1407
sS's00002390'
p1408
S'86129-81-9'
p1409
sS's00008031'
p1410
S'6207-41-6'
p1411
sS's00002398'
p1412
S'430-69-3'
p1413
sS's00002557'
p1414
S'54524-31-1'
p1415
sS's00004145'
p1416
S'400-43-1'
p1417
sS's00004865'
p1418
S'35468-44-1'
p1419
sS's00006980'
p1420
S'114646-19-4'
p1421
sS's00000996'
p1422
S'7417-73-4'
p1423
sS's00002958'
p1424
S'147703-34-2'
p1425
sS's00002959'
p1426
S'88099-83-6'
p1427
sS's00009063'
p1428
S'119437-61-5'
p1429
sS's00002957'
p1430
S'147703-30-8'
p1431
sS's00000855'
p1432
S'32313-84-1'
p1433
sS's00002772'
p1434
S'4853-79-6'
p1435
sS's00000854'
p1436
S'32313-83-0'
p1437
sS's00002779'
p1438
S'14836-22-7'
p1439
sS's00000802'
p1440
S'12125-72-3'
p1441
sS's00000803'
p1442
S'12116-44-8'
p1443
sS's00000801'
p1444
S'12083-24-8'
p1445
sS's00000804'
p1446
S'42463-82-1'
p1447
sS's00000805'
p1448
S'12125-77-8'
p1449
sS's00009922'
p1450
S'13587-51-4'
p1451
sS's00008767'
p1452
S'137007-13-7'
p1453
sS's00010366'
p1454
S'12036-00-9'
p1455
sS's00010365'
p1456
S'12035-99-3'
p1457
sS's00010363'
p1458
S'12035-97-1'
p1459
sS's00010360'
p1460
S'12035-93-7'
p1461
sS's00005697'
p1462
S'89031-88-9'
p1463
sS's00003120'
p1464
S'14096-82-3'
p1465
sS's00003122'
p1466
S'81714-33-2'
p1467
sS's00002498'
p1468
S'125611-13-4'
p1469
sS's00002177'
p1470
S'90177-25-6'
p1471
sS's00000749'
p1472
S'2916-70-3'
p1473
sS's00002379'
p1474
S'61307-92-4'
p1475
sS's00002375'
p1476
S'63043-58-3'
p1477
sS's00000936'
p1478
S'33274-45-2'
p1479
sS's00010211'
p1480
S'12596-53-1'
p1481
sS's00010217'
p1482
S'12058-07-0'
p1483
sS's00006416'
p1484
S'32799-25-0'
p1485
sS's00003172'
p1486
S'156517-27-0'
p1487
sS's00003170'
p1488
S'154393-30-3'
p1489
sS's00003965'
p1490
S'375-54-2'
p1491
sS's00003178'
p1492
S'52491-41-5'
p1493
sS's00006093'
p1494
S'69380-61-6'
p1495
sS's00006092'
p1496
S'69380-60-5'
p1497
sS's00006091'
p1498
S'69380-59-2'
p1499
sS's00003307'
p1500
S'24270-66-4'
p1501
sS's00003775'
p1502
S'82065-01-8'
p1503
sS's00006075'
p1504
S'80352-66-5'
p1505
sS's00006988'
p1506
S'2431-24-5'
p1507
sS's00008929'
p1508
S'28959-91-3'
p1509
sS's00008928'
p1510
S'22117-86-8'
p1511
sS's00008925'
p1512
S'13776-70-0'
p1513
sS's00008927'
p1514
S'89554-88-1'
p1515
sS's00008921'
p1516
S'58168-84-6'
p1517
sS's00008920'
p1518
S'115408-74-7'
p1519
sS's00008923'
p1520
S'55979-21-0'
p1521
sS's00008922'
p1522
S'133071-35-9'
p1523
sS's00000078'
p1524
S'12256-53-0'
p1525
sS's00007472'
p1526
S'7721-70-2'
p1527
sS's00007473'
p1528
S'81569-04-2'
p1529
sS's00007470'
p1530
S'127254-73-3'
p1531
sS's00009622'
p1532
S'63785-55-7'
p1533
sS's00007614'
p1534
S'22426-23-9'
p1535
sS's00003295'
p1536
S'563-85-9'
p1537
sS's00007613'
p1538
S'14779-29-4'
p1539
sS's00000485'
p1540
S'14024-58-9'
p1541
sS's00000482'
p1542
S'13395-16-9'
p1543
sS's00000483'
p1544
S'74910-62-6'
p1545
sS's00000481'
p1546
S'14024-48-7'
p1547
sS's00003353'
p1548
S'40905-10-0'
p1549
sS's00003352'
p1550
S'34853-20-8'
p1551
sS's00003351'
p1552
S'33272-69-4'
p1553
sS's00004818'
p1554
S'13275-39-3'
p1555
sS's00004817'
p1556
S'76913-34-3'
p1557
sS's00004811'
p1558
S'31452-24-1'
p1559
sS's00004810'
p1560
S'16812-19-4'
p1561
sS's00006678'
p1562
S'79517-51-4'
p1563
sS's00003289'
p1564
S'21300-54-9'
p1565
sS's00003288'
p1566
S'7379-29-5'
p1567
sS's00003285'
p1568
S'77310-78-2'
p1569
sS's00003284'
p1570
S'73341-19-2'
p1571
sS's00003287'
p1572
S'1517-51-7'
p1573
sS's00003286'
p1574
S'1517-50-6'
p1575
sS's00006677'
p1576
S'29771-79-7'
p1577
sS's00006676'
p1578
S'122519-95-3'
p1579
sS's00003283'
p1580
S'19491-25-9'
p1581
sS's00003282'
p1582
S'7299-37-8'
p1583
sS's00004257'
p1584
S'31450-05-2'
p1585
sS's00004253'
p1586
S'381-74-8'
p1587
sS's00009989'
p1588
S'81671-63-8'
p1589
sS's00009854'
p1590
S'78715-95-4'
p1591
sS's00003915'
p1592
S'3832-15-3'
p1593
sS's00009529'
p1594
S'13931-83-4'
p1595
sS's00009525'
p1596
S'65283-98-9'
p1597
sS's00004920'
p1598
S'26657-19-2'
p1599
sS's00001737'
p1600
S'4485-03-4'
p1601
sS's00008215'
p1602
S'38548-47-9'
p1603
sS's00008213'
p1604
S'4840-92-0'
p1605
sS's00008212'
p1606
S'2351-50-0'
p1607
sS's00000024'
p1608
S'18898-34-5'
p1609
sS's00000025'
p1610
S'13845-12-0'
p1611
sS's00000028'
p1612
S'12250-38-3'
p1613
sS's00000029'
p1614
S'22359-97-3'
p1615
sS's00005686'
p1616
S'34346-16-2'
p1617
sS's00009296'
p1618
S'925-94-0'
p1619
sS's00009291'
p1620
S'558-02-1'
p1621
sS's00009172'
p1622
S'63583-16-4'
p1623
sS's00009980'
p1624
S'43650-16-4'
p1625
sS's00008103'
p1626
S'29636-65-5'
p1627
sS's00008101'
p1628
S'25319-54-4'
p1629
sS's00008452'
p1630
S'2362-36-9'
p1631
sS's00008455'
p1632
S'1538-89-2'
p1633
sS's00008454'
p1634
S'19935-78-5'
p1635
sS's00008456'
p1636
S'35144-25-3'
p1637
sS's00002415'
p1638
S'54389-21-8'
p1639
sS's00002414'
p1640
S'147703-23-9'
p1641
sS's00009270'
p1642
S'114282-90-5'
p1643
sS's00009276'
p1644
S'114282-91-6'
p1645
sS's00003129'
p1646
S'2207-64-9'
p1647
sS's00010172'
p1648
S'12030-48-7'
p1649
sS's00010170'
p1650
S'12030-19-2'
p1651
sS's00010176'
p1652
S'25681-80-5'
p1653
sS's00001461'
p1654
S'15243-33-1'
p1655
sS's00001460'
p1656
S'15696-40-9'
p1657
sS's00010773'
p1658
S'14581-92-1'
p1659
sS's00010772'
p1660
S'16915-28-9'
p1661
sS's00010775'
p1662
S'12068-51-8'
p1663
sS's00010774'
p1664
S'12068-51-8'
p1665
sS's00010776'
p1666
S'32195-53-2'
p1667
sS's00009180'
p1668
S'55791-37-2'
p1669
sS's00010778'
p1670
S'21308-25-8'
p1671
sS's00001195'
p1672
S'29949-75-5'
p1673
sS's00009183'
p1674
S'130351-42-7'
p1675
sS's00001193'
p1676
S'68825-45-6'
p1677
sS's00001192'
p1678
S'68825-46-7'
p1679
sS's00001191'
p1680
S'33155-59-8'
p1681
sS's00009187'
p1682
S'122899-88-1'
p1683
sS's00001342'
p1684
S'84159-43-3'
p1685
sS's00009678'
p1686
S'73455-86-4'
p1687
sS's00010536'
p1688
S'207602-05-9'
p1689
sS's00010174'
p1690
S'12030-50-1'
p1691
sS's00008926'
p1692
S'14863-68-4'
p1693
sS's00004106'
p1694
S'59409-81-3'
p1695
sS's00005615'
p1696
S'2905-39-7'
p1697
sS's00010179'
p1698
S'12030-83-0'
p1699
sS's00010535'
p1700
S'268566-74-1'
p1701
sS's00004103'
p1702
S'33196-65-5'
p1703
sS's00010681'
p1704
S'244037-23-8'
p1705
sS's00010680'
p1706
S'574003-32-0'
p1707
sS's00010683'
p1708
S'591755-82-7'
p1709
sS's00010682'
p1710
S'591755-81-6'
p1711
sS's00009075'
p1712
S'60187-22-6'
p1713
sS's00001349'
p1714
S'2350-13-2'
p1715
sS's00010534'
p1716
S'144087-36-5'
p1717
sS's00009691'
p1718
S'88548-61-2'
p1719
sS's00010770'
p1720
S'39319-71-6'
p1721
sS's00002989'
p1722
S'18602-00-1'
p1723
sS's00002981'
p1724
S'103259-34-3'
p1725
sS's00002980'
p1726
S'1859-08-1'
p1727
sS's00002983'
p1728
S'70302-00-0'
p1729
sS's00002985'
p1730
S'40225-51-2'
p1731
sS's00004647'
p1732
S'38103-96-7'
p1733
sS's00002986'
p1734
S'151258-44-5'
p1735
sS's00003379'
p1736
S'122211-66-9'
p1737
sS's00010358'
p1738
S'12035-91-5'
p1739
sS's00003378'
p1740
S'119181-59-8'
p1741
sS's00010352'
p1742
S'12059-91-5'
p1743
sS's00010357'
p1744
S'12035-90-4'
p1745
sS's00010354'
p1746
S'12035-88-0'
p1747
sS's00010199'
p1748
S'12333-49-2'
p1749
sS's00010779'
p1750
S'68193-66-8'
p1751
sS's00003551'
p1752
S'65149-63-5'
p1753
sS's00010191'
p1754
S'12031-20-8'
p1755
sS's00010192'
p1756
S'12142-67-5'
p1757
sS's00009184'
p1758
S'127838-98-6'
p1759
sS's00009185'
p1760
S'24383-91-3'
p1761
sS's00002181'
p1762
S'116328-97-3'
p1763
sS's00009186'
p1764
S'25683-64-1'
p1765
sS's00002187'
p1766
S'41970-16-5'
p1767
sS's00003373'
p1768
S'89397-79-5'
p1769
sS's00006290'
p1770
S'44564-80-9'
p1771
sS's00006293'
p1772
S'29680-38-4'
p1773
sS's00002346'
p1774
S'162193-90-0'
p1775
sS's00002341'
p1776
S'23273-89-4'
p1777
sS's00002340'
p1778
S'23273-88-3'
p1779
sS's00009474'
p1780
S'666816-55-3'
p1781
sS's00003176'
p1782
S'52491-45-9'
p1783
sS's00006084'
p1784
S'55613-71-3'
p1785
sS's00006085'
p1786
S'123136-51-6'
p1787
sS's00006086'
p1788
S'82810-50-2'
p1789
sS's00008856'
p1790
S'107701-37-1'
p1791
sS's00006080'
p1792
S'2432-37-3'
p1793
sS's00006081'
p1794
S'2432-39-5'
p1795
sS's00006082'
p1796
S'55613-69-9'
p1797
sS's00006083'
p1798
S'55613-70-2'
p1799
sS's00006248'
p1800
S'16156-55-1'
p1801
sS's00007046'
p1802
S'65786-09-6'
p1803
sS's00006060'
p1804
S'38103-98-9'
p1805
sS's00008939'
p1806
S'1111-88-2'
p1807
sS's00010532'
p1808
S'83917-77-5'
p1809
sS's00003165'
p1810
S'422-98-0'
p1811
sS's00009001'
p1812
S'77488-74-5'
p1813
sS's00009000'
p1814
S'174007-83-1'
p1815
sS's00003163'
p1816
S'1561-52-0'
p1817
sS's00006404'
p1818
S'95576-25-3'
p1819
sS's00009003'
p1820
S'89831-20-9'
p1821
sS's00003166'
p1822
S'423-26-7'
p1823
sS's00003583'
p1824
S'4168-05-2'
p1825
sS's00003580'
p1826
S'2730-67-8'
p1827
sS's00003581'
p1828
S'24566-75-4'
p1829
sS's00000129'
p1830
S'1332-64-5'
p1831
sS's00003584'
p1832
S'94816-42-9'
p1833
sS's00000127'
p1834
S'12187-12-1'
p1835
sS's00000121'
p1836
S'13814-50-1'
p1837
sS's00000123'
p1838
S'13597-96-1'
p1839
sS's00009004'
p1840
S'115408-73-6'
p1841
sS's00003345'
p1842
S'13749-37-6'
p1843
sS's00010558'
p1844
S'13676-58-9'
p1845
sS's00004808'
p1846
S'16648-23-0'
p1847
sS's00004809'
p1848
S'16812-18-3'
p1849
sS's00001026'
p1850
S'36375-63-0'
p1851
sS's00003294'
p1852
S'75705-14-5'
p1853
sS's00003293'
p1854
S'28987-21-5'
p1855
sS's00003290'
p1856
S'24704-57-2'
p1857
sS's00004248'
p1858
S'62214-44-2'
p1859
sS's00004249'
p1860
S'62239-39-8'
p1861
sS's00006937'
p1862
S'823-25-6'
p1863
sS's00007138'
p1864
S'161535-18-8'
p1865
sS's00004240'
p1866
S'1822-86-2'
p1867
sS's00004241'
p1868
S'33954-15-3'
p1869
sS's00004243'
p1870
S'1473-54-7'
p1871
sS's00001151'
p1872
S'12089-15-5'
p1873
sS's00008126'
p1874
S'766-99-4'
p1875
sS's00000239'
p1876
S'12116-66-4'
p1877
sS's00001157'
p1878
S'26929-23-7'
p1879
sS's00009868'
p1880
S'62470-59-1'
p1881
sS's00010511'
p1882
S'211235-51-7'
p1883
sS's00009516'
p1884
S'95860-66-5'
p1885
sS's00009515'
p1886
S'95386-61-1'
p1887
sS's00009519'
p1888
S'12190-75-9'
p1889
sS's00001724'
p1890
S'4168-06-3'
p1891
sS's00010477'
p1892
S'345234-24-4'
p1893
sS's00001158'
p1894
S'26929-24-8'
p1895
sS's00001055'
p1896
S'83510-95-6'
p1897
sS's00000055'
p1898
S'58206-67-0'
p1899
sS's00000054'
p1900
S'12301-65-4'
p1901
sS's00010474'
p1902
S'18851-76-8'
p1903
sS's00000051'
p1904
S'12254-69-2'
p1905
sS's00000050'
p1906
S'12595-59-4'
p1907
sS's00000053'
p1908
S'51184-77-1'
p1909
sS's00000052'
p1910
S'87193-95-1'
p1911
sS's00000059'
p1912
S'12505-67-8'
p1913
sS's00003832'
p1914
S'38007-05-5'
p1915
sS's00010475'
p1916
S'17141-28-5'
p1917
sS's00001617'
p1918
S'82136-07-0'
p1919
sS's00002406'
p1920
S'147703-28-4'
p1921
sS's00002402'
p1922
S'114810-01-4'
p1923
sS's00002403'
p1924
S'116819-06-8'
p1925
sS's00009246'
p1926
S'635315-39-8'
p1927
sS's00004116'
p1928
S'95313-95-4'
p1929
sS's00010169'
p1930
S'1312-42-1'
p1931
sS's00005195'
p1932
S'16606-18-1'
p1933
sS's00010766'
p1934
S'7349-97-6'
p1935
sS's00010767'
p1936
S'184842-55-5'
p1937
sS's00010764'
p1938
S'7349-97-6'
p1939
sS's00010765'
p1940
S'7349-97-6'
p1941
sS's00009643'
p1942
S'64711-87-1'
p1943
sS's00009642'
p1944
S'12395-41-4'
p1945
sS's00009645'
p1946
S'71596-44-6'
p1947
sS's00009880'
p1948
S'100012-09-7'
p1949
sS's00009423'
p1950
S'12442-63-6'
p1951
sS's00004179'
p1952
S'62214-41-9'
p1953
sS's00002965'
p1954
S'72188-43-3'
p1955
sS's00002576'
p1956
S'55198-01-1'
p1957
sS's00009427'
p1958
S'20762-58-7'
p1959
sS's00005375'
p1960
S'119291-22-4'
p1961
sS's00004596'
p1962
S'83984-55-8'
p1963
sS's00010109'
p1964
S'135659-61-9'
p1965
sS's00010462'
p1966
S'14452-61-0'
p1967
sS's00002805'
p1968
S'5819-02-3'
p1969
sS's00002974'
p1970
S'2154-63-4'
p1971
sS's00002975'
p1972
S'25854-32-4'
p1973
sS's00002976'
p1974
S'25854-33-5'
p1975
sS's00002977'
p1976
S'91419-90-8'
p1977
sS's00002970'
p1978
S'56912-77-7'
p1979
sS's00009084'
p1980
S'16890-80-5'
p1981
sS's00008910'
p1982
S'19845-51-3'
p1983
sS's00002978'
p1984
S'4397-42-6'
p1985
sS's00002979'
p1986
S'3681-30-9'
p1987
sS's00010698'
p1988
S'94227-23-3'
p1989
sS's00002993'
p1990
S'40617-75-2'
p1991
sS's00002996'
p1992
S'3822-63-7'
p1993
sS's00002997'
p1994
S'147703-29-5'
p1995
sS's00002994'
p1996
S'109088-08-6'
p1997
sS's00002995'
p1998
S'3831-49-0'
p1999
sS's00005576'
p2000
S'17462-58-7'
p2001
sS's00010344'
p2002
S'12143-03-2'
p2003
sS's00010345'
p2004
S'12137-18-7'
p2005
sS's00010346'
p2006
S'12143-05-4'
p2007
sS's00010340'
p2008
S'12035-81-3'
p2009
sS's00010342'
p2010
S'12509-27-2'
p2011
sS's00010188'
p2012
S'51682-34-9'
p2013
sS's00010189'
p2014
S'12521-42-5'
p2015
sS's00010181'
p2016
S'12056-29-0'
p2017
sS's00010187'
p2018
S'12596-40-6'
p2019
sS's00010184'
p2020
S'106992-37-4'
p2021
sS's00010185'
p2022
S'12333-39-0'
p2023
sS's00007615'
p2024
S'111160-47-5'
p2025
sS's00002196'
p2026
S'38510-76-8'
p2027
sS's00002194'
p2028
S'7094-17-9'
p2029
sS's00002195'
p2030
S'31366-23-1'
p2031
sS's00002198'
p2032
S'111005-89-1'
p2033
sS's00002962'
p2034
S'125672-34-6'
p2035
sS's00000910'
p2036
S'35306-56-0'
p2037
sS's00000911'
p2038
S'42498-40-8'
p2039
sS's00003784'
p2040
S'82065-00-7'
p2041
sS's00003183'
p2042
S'31464-99-0'
p2043
sS's00000077'
p2044
S'12429-34-4'
p2045
sS's00010760'
p2046
S'51912-69-7'
p2047
sS's00009102'
p2048
S'87330-92-5'
p2049
sS's00005460'
p2050
S'85209-31-0'
p2051
sS's00002984'
p2052
S'40225-50-1'
p2053
sS's00003786'
p2054
S'474380-08-0'
p2055
sS's00003753'
p2056
S'40225-52-3'
p2057
sS's00003751'
p2058
S'19469-03-5'
p2059
sS's00003025'
p2060
S'55186-08-8'
p2061
sS's00003754'
p2062
S'82064-99-1'
p2063
sS's00004151'
p2064
S'51472-79-8'
p2065
sS's00008900'
p2066
S'109026-11-1'
p2067
sS's00008906'
p2068
S'83498-79-7'
p2069
sS's00008909'
p2070
S'22082-78-6'
p2071
sS's00001887'
p2072
S'33274-41-8'
p2073
sS's00001889'
p2074
S'33274-43-0'
p2075
sS's00001888'
p2076
S'33274-42-9'
p2077
sS's00003115'
p2078
S'68883-61-4'
p2079
sS's00003114'
p2080
S'136649-69-9'
p2081
sS's00003117'
p2082
S'65322-37-4'
p2083
sS's00003111'
p2084
S'25476-71-5'
p2085
sS's00006470'
p2086
S'36274-76-7'
p2087
sS's00006472'
p2088
S'12189-10-5'
p2089
sS's00000131'
p2090
S'12010-57-0'
p2091
sS's00003332'
p2092
S'32091-51-3'
p2093
sS's00000838'
p2094
S'14693-30-2'
p2095
sS's00004830'
p2096
S'44780-98-5'
p2097
sS's00004837'
p2098
S'59982-53-5'
p2099
sS's00004838'
p2100
S'114221-02-2'
p2101
sS's00006989'
p2102
S'65786-11-0'
p2103
sS's00003978'
p2104
S'119628-75-0'
p2105
sS's00003249'
p2106
S'83797-21-1'
p2107
sS's00010059'
p2108
S'13966-62-6'
p2109
sS's00003932'
p2110
S'50340-75-5'
p2111
sS's00003937'
p2112
S'76913-33-2'
p2113
sS's00009879'
p2114
S'14691-46-4'
p2115
sS's00003934'
p2116
S'22026-37-5'
p2117
sS's00009504'
p2118
S'109621-61-6'
p2119
sS's00010505'
p2120
S'90894-95-4'
p2121
sS's00009500'
p2122
S'41851-42-7'
p2123
sS's00010503'
p2124
S'777890-20-7'
p2125
sS's00010500'
p2126
S'749252-44-6'
p2127
sS's00010501'
p2128
S'777890-19-4'
p2129
sS's00009508'
p2130
S'13997-90-5'
p2131
sS's00010508'
p2132
S'777890-18-3'
p2133
sS's00004906'
p2134
S'23010-09-5'
p2135
sS's00004909'
p2136
S'21363-83-7'
p2137
sS's00004908'
p2138
S'115523-09-6'
p2139
sS's00001063'
p2140
S'12125-87-0'
p2141
sS's00001066'
p2142
S'12146-37-1'
p2143
sS's00001064'
p2144
S'61997-36-2'
p2145
sS's00009229'
p2146
S'181633-50-1'
p2147
sS's00000397'
p2148
S'68167-29-3'
p2149
sS's00004340'
p2150
S'22669-09-6'
p2151
sS's00000044'
p2152
S'85479-73-8'
p2153
sS's00004344'
p2154
S'421-74-9'
p2155
sS's00004346'
p2156
S'1119-20-6'
p2157
sS's00001341'
p2158
S'32690-35-0'
p2159
sS's00005980'
p2160
S'115523-10-9'
p2161
sS's00003809'
p2162
S'67536-36-1'
p2163
sS's00003805'
p2164
S'39486-13-0'
p2165
sS's00003804'
p2166
S'18026-91-0'
p2167
sS's00008539'
p2168
S'939-62-8'
p2169
sS's00009251'
p2170
S'1722-33-4'
p2171
sS's00009252'
p2172
S'20420-08-0'
p2173
sS's00009253'
p2174
S'42274-57-7'
p2175
sS's00008302'
p2176
S'93166-66-6'
p2177
sS's00002616'
p2178
S'5177-75-3'
p2179
sS's00005187'
p2180
S'1115-07-7'
p2181
sS's00010757'
p2182
S'63344-86-5'
p2183
sS's00010756'
p2184
S'30664-12-1'
p2185
sS's00009658'
p2186
S'13940-76-6'
p2187
sS's00002180'
p2188
S'110786-11-3'
p2189
sS's00005691'
p2190
S'759-15-9'
p2191
sS's00009893'
p2192
S'99642-77-0'
p2193
sS's00002887'
p2194
S'52670-37-8'
p2195
sS's00002502'
p2196
S'7291-10-3'
p2197
sS's00007178'
p2198
S'69436-45-9'
p2199
sS's00001088'
p2200
S'17786-31-1'
p2201
sS's00004563'
p2202
S'691-40-7'
p2203
sS's00004562'
p2204
S'686-63-5'
p2205
sS's00004565'
p2206
S'57413-82-8'
p2207
sS's00004567'
p2208
S'2358-38-5'
p2209
sS's00004566'
p2210
S'76913-35-4'
p2211
sS's00009092'
p2212
S'408497-95-0'
p2213
sS's00009090'
p2214
S'76392-49-9'
p2215
sS's00009098'
p2216
S'13205-44-2'
p2217
sS's00009099'
p2218
S'79723-21-0'
p2219
sS's00002213'
p2220
S'58168-85-7'
p2221
sS's00002214'
p2222
S'38269-03-3'
p2223
sS's00002217'
p2224
S'33685-55-1'
p2225
sS's00002216'
p2226
S'108451-24-7'
p2227
sS's00002218'
p2228
S'563-93-9'
p2229
sS's00000857'
p2230
S'59163-69-8'
p2231
sS's00000856'
p2232
S'32313-85-2'
p2233
sS's00005566'
p2234
S'24356-00-1'
p2235
sS's00005563'
p2236
S'17773-64-7'
p2237
sS's00005561'
p2238
S'10523-96-3'
p2239
sS's00005568'
p2240
S'26386-83-4'
p2241
sS's00001769'
p2242
S'19771-13-2'
p2243
sS's00002695'
p2244
S'661-21-2'
p2245
sS's00001850'
p2246
S'68825-41-2'
p2247
sS's00010155'
p2248
S'21297-03-0'
p2249
sS's00004331'
p2250
S'68344-07-0'
p2251
sS's00002321'
p2252
S'50663-45-1'
p2253
sS's00002322'
p2254
S'57095-76-8'
p2255
sS's00010241'
p2256
S'34166-62-6'
p2257
sS's00010249'
p2258
S'56971-19-8'
p2259
sS's00010248'
p2260
S'132297-46-2'
p2261
sS's00004332'
p2262
S'75156-31-9'
p2263
sS's00008879'
p2264
S'16499-24-4'
p2265
sS's00010514'
p2266
S'207602-04-8'
p2267
sS's00008876'
p2268
S'22632-20-8'
p2269
sS's00003883'
p2270
S'385441-65-6'
p2271
sS's00003746'
p2272
S'25783-06-6'
p2273
sS's00003881'
p2274
S'385441-62-3'
p2275
sS's00003038'
p2276
S'12602-41-4'
p2277
sS's00003039'
p2278
S'109545-32-6'
p2279
sS's00006862'
p2280
S'1932-99-6'
p2281
sS's00006863'
p2282
S'36375-69-6'
p2283
sS's00006860'
p2284
S'2999-06-6'
p2285
sS's00006866'
p2286
S'461-73-4'
p2287
sS's00006864'
p2288
S'36375-70-9'
p2289
sS's00006865'
p2290
S'110881-64-6'
p2291
sS's00008918'
p2292
S'68299-69-4'
p2293
sS's00001897'
p2294
S'29949-74-4'
p2295
sS's00006199'
p2296
S'17336-76-4'
p2297
sS's00003559'
p2298
S'29761-90-8'
p2299
sS's00003558'
p2300
S'19468-99-6'
p2301
sS's00005692'
p2302
S'6586-85-2'
p2303
sS's00003922'
p2304
S'53952-09-3'
p2305
sS's00006465'
p2306
S'356-23-0'
p2307
sS's00006462'
p2308
S'42463-83-2'
p2309
sS's00006461'
p2310
S'18164-03-9'
p2311
sS's00004473'
p2312
S'1550-49-8'
p2313
sS's00000106'
p2314
S'14832-97-4'
p2315
sS's00000104'
p2316
S'29750-36-5'
p2317
sS's00000108'
p2318
S'14832-99-6'
p2319
sS's00009618'
p2320
S'13587-52-5'
p2321
sS's00009619'
p2322
S'14014-06-3'
p2323
sS's00004824'
p2324
S'55949-54-7'
p2325
sS's00006990'
p2326
S'84226-36-8'
p2327
sS's00006991'
p2328
S'762-22-1'
p2329
sS's00000042'
p2330
S'14457-64-8'
p2331
sS's00009206'
p2332
S'68355-44-2'
p2333
sS's00006682'
p2334
S'90827-60-4'
p2335
sS's00006683'
p2336
S'90827-61-5'
p2337
sS's00006681'
p2338
S'90827-59-1'
p2339
sS's00006686'
p2340
S'2875-92-5'
p2341
sS's00006684'
p2342
S'90827-62-6'
p2343
sS's00009204'
p2344
S'78800-76-7'
p2345
sS's00004471'
p2346
S'675-56-9'
p2347
sS's00002920'
p2348
S'134153-49-4'
p2349
sS's00010539'
p2350
S'207602-02-6'
p2351
sS's00000214'
p2352
S'16416-29-8'
p2353
sS's00003928'
p2354
S'7582-04-9'
p2355
sS's00003929'
p2356
S'19170-96-8'
p2357
sS's00000210'
p2358
S'19439-14-6'
p2359
sS's00003924'
p2360
S'58207-38-8'
p2361
sS's00004470'
p2362
S'75180-03-9'
p2363
sS's00003923'
p2364
S'377-41-3'
p2365
sS's00004851'
p2366
S'72408-79-8'
p2367
sS's00004254'
p2368
S'383-84-6'
p2369
sS's00004850'
p2370
S'53952-10-6'
p2371
sS's00004910'
p2372
S'4168-08-5'
p2373
sS's00000698'
p2374
S'1002-70-6'
p2375
sS's00004477'
p2376
S'33574-02-6'
p2377
sS's00001075'
p2378
S'72791-63-0'
p2379
sS's00008260'
p2380
S'3845-54-3'
p2381
sS's00000073'
p2382
S'12408-82-1'
p2383
sS's00000072'
p2384
S'12408-81-0'
p2385
sS's00000071'
p2386
S'12187-09-6'
p2387
sS's00008857'
p2388
S'139359-32-3'
p2389
sS's00000075'
p2390
S'12429-32-2'
p2391
sS's00000074'
p2392
S'12044-80-3'
p2393
sS's00000510'
p2394
S'2943-20-6'
p2395
sS's00009798'
p2396
S'12065-10-0'
p2397
sS's00000522'
p2398
S'1833-28-9'
p2399
sS's00009791'
p2400
S'12134-74-6'
p2401
sS's00009790'
p2402
S'12024-77-0'
p2403
sS's00009793'
p2404
S'12596-05-3'
p2405
sS's00009408'
p2406
S'12345-57-2'
p2407
sS's00009407'
p2408
S'12258-97-8'
p2409
sS's00009400'
p2410
S'12258-95-6'
p2411
sS's00009403'
p2412
S'17417-38-8'
p2413
sS's00008769'
p2414
S'402-24-4'
p2415
sS's00001678'
p2416
S'1316-98-9'
p2417
sS's00001677'
p2418
S'1273-97-8'
p2419
sS's00008318'
p2420
S'37808-75-6'
p2421
sS's00004680'
p2422
S'68860-48-0'
p2423
sS's00008859'
p2424
S'138853-33-5'
p2425
sS's00010748'
p2426
S'158965-68-5'
p2427
sS's00005177'
p2428
S'98139-68-5'
p2429
sS's00010740'
p2430
S'61027-57-4'
p2431
sS's00010741'
p2432
S'61027-57-4'
p2433
sS's00010742'
p2434
S'61027-57-4'
p2435
sS's00010743'
p2436
S'1309-38-2'
p2437
sS's00010744'
p2438
S'1309-38-2'
p2439
sS's00010745'
p2440
S'1309-38-2'
p2441
sS's00010746'
p2442
S'25884-11-1'
p2443
sS's00010747'
p2444
S'57147-09-8'
p2445
sS's00008261'
p2446
S'39160-18-4'
p2447
sS's00010412'
p2448
S'32679-33-7'
p2449
sS's00009310'
p2450
S'16520-12-0'
p2451
sS's00009139'
p2452
S'753-58-2'
p2453
sS's00002518'
p2454
S'121832-04-0'
p2455
sS's00009130'
p2456
S'10536-65-9'
p2457
sS's00009132'
p2458
S'51375-79-2'
p2459
sS's00002512'
p2460
S'59263-87-5'
p2461
sS's00009137'
p2462
S'92386-02-2'
p2463
sS's00010473'
p2464
S'54250-40-7'
p2465
sS's00004770'
p2466
S'15459-87-7'
p2467
sS's00001093'
p2468
S'17685-52-8'
p2469
sS's00004576'
p2470
S'18338-56-2'
p2471
sS's00004577'
p2472
S'54389-19-4'
p2473
sS's00004575'
p2474
S'16063-39-1'
p2475
sS's00009510'
p2476
S'21110-21-4'
p2477
sS's00005659'
p2478
S'2344-14-1'
p2479
sS's00009799'
p2480
S'12025-36-4'
p2481
sS's00003211'
p2482
S'102687-65-0'
p2483
sS's00010546'
p2484
S'2936-44-9'
p2485
sS's00002206'
p2486
S'38000-88-3'
p2487
sS's00002207'
p2488
S'147703-32-0'
p2489
sS's00000848'
p2490
S'12129-29-2'
p2491
sS's00002205'
p2492
S'4539-13-3'
p2493
sS's00002208'
p2494
S'147703-36-4'
p2495
sS's00002209'
p2496
S'147703-40-0'
p2497
sS's00005225'
p2498
S'112097-18-4'
p2499
sS's00005791'
p2500
S'83561-08-4'
p2501
sS's00005795'
p2502
S'16749-11-4'
p2503
sS's00005797'
p2504
S'24955-62-2'
p2505
sS's00005796'
p2506
S'16890-91-8'
p2507
sS's00004255'
p2508
S'406-39-3'
p2509
sS's00000282'
p2510
S'19759-23-0'
p2511
sS's00000283'
p2512
S'1796-69-6'
p2513
sS's00009459'
p2514
S'53664-01-0'
p2515
sS's00007574'
p2516
S'36375-65-2'
p2517
sS's00009363'
p2518
S'81202-14-4'
p2519
sS's00002339'
p2520
S'20394-27-8'
p2521
sS's00008543'
p2522
S'125294-45-3'
p2523
sS's00010252'
p2524
S'12033-59-9'
p2525
sS's00003191'
p2526
S'15279-03-5'
p2527
sS's00004105'
p2528
S'124330-23-0'
p2529
sS's00007573'
p2530
S'36375-64-1'
p2531
sS's00003192'
p2532
S'20478-15-3'
p2533
sS's00000039'
p2534
S'29977-41-1'
p2535
sS's00008869'
p2536
S'16547-92-5'
p2537
sS's00008860'
p2538
S'3889-77-8'
p2539
sS's00009570'
p2540
S'24774-39-8'
p2541
sS's00006527'
p2542
S'29771-80-0'
p2543
sS's00003006'
p2544
S'4168-07-4'
p2545
sS's00003005'
p2546
S'147703-25-1'
p2547
sS's00003002'
p2548
S'145252-03-5'
p2549
sS's00006529'
p2550
S'51494-70-3'
p2551
sS's00006528'
p2552
S'51494-69-0'
p2553
sS's00006856'
p2554
S'114646-24-1'
p2555
sS's00006855'
p2556
S'114646-20-7'
p2557
sS's00003130'
p2558
S'115474-09-4'
p2559
sS's00003137'
p2560
S'6922-94-7'
p2561
sS's00003134'
p2562
S'78334-72-2'
p2563
sS's00003468'
p2564
S'1117-90-4'
p2565
sS's00000110'
p2566
S'13966-70-6'
p2567
sS's00007327'
p2568
S'6725-34-4'
p2569
sS's00000444'
p2570
S'7205-66-5'
p2571
sS's00003647'
p2572
S'16696-81-4'
p2573
sS's00009226'
p2574
S'22322-29-8'
p2575
sS's00009730'
p2576
S'15179-32-5'
p2577
sS's00003482'
p2578
S'25448-69-5'
p2579
sS's00003481'
p2580
S'153619-91-1'
p2581
sS's00003487'
p2582
S'54389-20-7'
p2583
sS's00001786'
p2584
S'1272-23-7'
p2585
sS's00008262'
p2586
S'54439-95-1'
p2587
sS's00009144'
p2588
S'137848-37-4'
p2589
sS's00009383'
p2590
S'63172-08-7'
p2591
sS's00000204'
p2592
S'74140-67-3'
p2593
sS's00000205'
p2594
S'14791-57-2'
p2595
sS's00000206'
p2596
S'14519-13-2'
p2597
sS's00010528'
p2598
S'81475-21-0'
p2599
sS's00003267'
p2600
S'7125-99-7'
p2601
sS's00010526'
p2602
S'90584-32-0'
p2603
sS's00006402'
p2604
S'13122-33-3'
p2605
sS's00010523'
p2606
S'84658-62-8'
p2607
sS's00009812'
p2608
S'14644-45-2'
p2609
sS's00001537'
p2610
S'84507-46-0'
p2611
sS's00006403'
p2612
S'13122-34-4'
p2613
sS's00000069'
p2614
S'26754-98-3'
p2615
sS's00008090'
p2616
S'28247-29-2'
p2617
sS's00000061'
p2618
S'41996-37-6'
p2619
sS's00009788'
p2620
S'12024-08-7'
p2621
sS's00009786'
p2622
S'15605-68-2'
p2623
sS's00009784'
p2624
S'76797-74-5'
p2625
sS's00009783'
p2626
S'11088-95-2'
p2627
sS's00003867'
p2628
S'2356-62-9'
p2629
sS's00009418'
p2630
S'105206-44-8'
p2631
sS's00003862'
p2632
S'69093-46-5'
p2633
sS's00010419'
p2634
S'12067-44-6'
p2635
sS's00009414'
p2636
S'12258-98-9'
p2637
sS's00009412'
p2638
S'25938-83-4'
p2639
sS's00004178'
p2640
S'41601-60-9'
p2641
sS's00005688'
p2642
S'65455-53-0'
p2643
sS's00009147'
p2644
S'99601-83-9'
p2645
sS's00003221'
p2646
S'754-12-1'
p2647
sS's00004149'
p2648
S'53006-35-2'
p2649
sS's00009235'
p2650
S'141223-15-6'
p2651
sS's00009230'
p2652
S'141223-21-4'
p2653
sS's00004143'
p2654
S'558-61-2'
p2655
sS's00004144'
p2656
S'112097-17-3'
p2657
sS's00008204'
p2658
S'1193-80-2'
p2659
sS's00005894'
p2660
S'6734-98-1'
p2661
sS's00005895'
p2662
S'7712-60-9'
p2663
sS's00008259'
p2664
S'1861-01-4'
p2665
sS's00008258'
p2666
S'107079-57-2'
p2667
sS's00009305'
p2668
S'16156-36-8'
p2669
sS's00008253'
p2670
S'20488-10-2'
p2671
sS's00000295'
p2672
S'1796-56-1'
p2673
sS's00008257'
p2674
S'106682-40-0'
p2675
sS's00008255'
p2676
S'456-16-6'
p2677
sS's00008254'
p2678
S'20001-65-4'
p2679
sS's00009121'
p2680
S'138434-09-0'
p2681
sS's00009126'
p2682
S'77971-32-5'
p2683
sS's00004104'
p2684
S'234750-71-1'
p2685
sS's00004543'
p2686
S'83561-14-2'
p2687
sS's00009447'
p2688
S'59217-69-5'
p2689
sS's00004541'
p2690
S'38816-82-9'
p2691
sS's00004571'
p2692
S'115523-08-5'
p2693
sS's00002785'
p2694
S'20693-67-8'
p2695
sS's00002783'
p2696
S'151358-34-8'
p2697
sS's00002782'
p2698
S'80641-42-5'
p2699
sS's00002781'
p2700
S'88053-53-6'
p2701
sS's00007747'
p2702
S'15020-15-2'
p2703
sS's00005232'
p2704
S'993-95-3'
p2705
sS's00010395'
p2706
S'12600-90-7'
p2707
sS's00010394'
p2708
S'12596-98-4'
p2709
sS's00010391'
p2710
S'25681-81-6'
p2711
sS's00005324'
p2712
S'74636-32-1'
p2713
sS's00002308'
p2714
S'101150-96-3'
p2715
sS's00002303'
p2716
S'16986-24-6'
p2717
sS's00002923'
p2718
S'13245-54-0'
p2719
sS's00002655'
p2720
S'61160-51-8'
p2721
sS's00002304'
p2722
S'20644-12-6'
p2723
sS's00010266'
p2724
S'12333-61-8'
p2725
sS's00010265'
p2726
S'12058-54-7'
p2727
sS's00010264'
p2728
S'39422-71-4'
p2729
sS's00002516'
p2730
S'57449-71-5'
p2731
sS's00010067'
p2732
S'14452-76-7'
p2733
sS's00002515'
p2734
S'41290-94-2'
p2735
sS's00002513'
p2736
S'86492-26-4'
p2737
sS's00007366'
p2738
S'77483-13-7'
p2739
sS's00010568'
p2740
S'871-33-0'
p2741
sS's00008899'
p2742
S'70490-93-6'
p2743
sS's00009136'
p2744
S'16978-68-0'
p2745
sS's00010510'
p2746
S'777890-21-8'
p2747
sS's00003483'
p2748
S'21379-83-9'
p2749
sS's00001219'
p2750
S'39333-52-3'
p2751
sS's00003124'
p2752
S'356535-04-1'
p2753
sS's00006339'
p2754
S'13122-41-3'
p2755
sS's00004674'
p2756
S'3195-86-6'
p2757
sS's00003656'
p2758
S'356535-03-0'
p2759
sS's00003655'
p2760
S'53904-29-3'
p2761
sS's00010375'
p2762
S'12281-36-6'
p2763
sS's00006538'
p2764
S'141707-52-0'
p2765
sS's00007557'
p2766
S'27324-83-0'
p2767
sS's00006530'
p2768
S'51494-71-4'
p2769
sS's00006531'
p2770
S'2652-64-4'
p2771
sS's00006532'
p2772
S'356-77-4'
p2773
sS's00006533'
p2774
S'2646-84-6'
p2775
sS's00003016'
p2776
S'87598-22-9'
p2777
sS's00006537'
p2778
S'84521-01-7'
p2779
sS's00000272'
p2780
S'1294-74-2'
p2781
sS's00003275'
p2782
S'53220-05-6'
p2783
sS's00003276'
p2784
S'112097-16-2'
p2785
sS's00000238'
p2786
S'1293-73-8'
p2787
sS's00010758'
p2788
S'16904-65-7'
p2789
sS's00008067'
p2790
S'17336-77-5'
p2791
sS's00003787'
p2792
S'619325-94-9'
p2793
sS's00006397'
p2794
S'110133-08-9'
p2795
sS's00000301'
p2796
S'2928-09-8'
p2797
sS's00000300'
p2798
S'2711-76-4'
p2799
sS's00000303'
p2800
S'59163-71-2'
p2801
sS's00000302'
p2802
S'2928-12-3'
p2803
sS's00000305'
p2804
S'59163-75-6'
p2805
sS's00000306'
p2806
S'147164-51-0'
p2807
sS's00000308'
p2808
S'1796-57-2'
p2809
sS's00010467'
p2810
S'32062-14-9'
p2811
sS's00010461'
p2812
S'38150-67-3'
p2813
sS's00009934'
p2814
S'145771-87-5'
p2815
sS's00009937'
p2816
S'101010-12-2'
p2817
sS's00009936'
p2818
S'32520-13-1'
p2819
sS's00009938'
p2820
S'425371-31-9'
p2821
sS's00010754'
p2822
S'14541-24-3'
p2823
sS's00010468'
p2824
S'21308-80-5'
p2825
sS's00007179'
p2826
S'72132-79-7'
p2827
sS's00010811'
p2828
S'15117-75-6'
p2829
sS's00009518'
p2830
S'14989-29-8'
p2831
sS's00004157'
p2832
S'85288-90-0'
p2833
sS's00004150'
p2834
S'24313-50-6'
p2835
sS's00008967'
p2836
S'10357-59-2'
p2837
sS's00010722'
p2838
S'22325-61-7'
p2839
sS's00010723'
p2840
S'27846-09-9'
p2841
sS's00010720'
p2842
S'175861-93-5'
p2843
sS's00009687'
p2844
S'53314-77-5'
p2845
sS's00009680'
p2846
S'16865-60-4'
p2847
sS's00009332'
p2848
S'425602-41-1'
p2849
sS's00009331'
p2850
S'123132-54-7'
p2851
sS's00009339'
p2852
S'12385-37-4'
p2853
sS's00002821'
p2854
S'129064-95-5'
p2855
sS's00002531'
p2856
S'1538-06-3'
p2857
sS's00002533'
p2858
S'38795-06-1'
p2859
sS's00005330'
p2860
S'15156-63-5'
p2861
sS's00009113'
p2862
S'37832-49-8'
p2863
sS's00005334'
p2864
S'84333-17-5'
p2865
sS's00010094'
p2866
S'14332-32-2'
p2867
sS's00010095'
p2868
S'12315-33-2'
p2869
sS's00010090'
p2870
S'14515-04-9'
p2871
sS's00010091'
p2872
S'53826-03-2'
p2873
sS's00004551'
p2874
S'6089-11-8'
p2875
sS's00004552'
p2876
S'104749-28-2'
p2877
sS's00004554'
p2878
S'41895-43-6'
p2879
sS's00009759'
p2880
S'35901-46-3'
p2881
sS's00009758'
p2882
S'87331-13-3'
p2883
sS's00009751'
p2884
S'36882-12-9'
p2885
sS's00009750'
p2886
S'13967-06-1'
p2887
sS's00002228'
p2888
S'77704-65-5'
p2889
sS's00010753'
p2890
S'12306-07-9'
p2891
sS's00002220'
p2892
S'356535-00-7'
p2893
sS's00002221'
p2894
S'90116-46-4'
p2895
sS's00002222'
p2896
S'2747-58-2'
p2897
sS's00002223'
p2898
S'558-59-8'
p2899
sS's00002226'
p2900
S'90399-51-2'
p2901
sS's00002227'
p2902
S'22476-20-6'
p2903
sS's00009007'
p2904
S'71701-40-1'
p2905
sS's00001508'
p2906
S'86233-74-1'
p2907
sS's00010382'
p2908
S'1314-91-6'
p2909
sS's00010384'
p2910
S'12596-93-9'
p2911
sS's00010385'
p2912
S'12137-77-8'
p2913
sS's00001509'
p2914
S'244105-38-2'
p2915
sS's00008091'
p2916
S'66365-05-7'
p2917
sS's00005557'
p2918
S'928-50-7'
p2919
sS's00006314'
p2920
S'1722-26-5'
p2921
sS's00010571'
p2922
S'591755-73-6'
p2923
sS's00001054'
p2924
S'13985-77-8'
p2925
sS's00005652'
p2926
S'80612-03-9'
p2927
sS's00005653'
p2928
S'80862-68-6'
p2929
sS's00002314'
p2930
S'359-19-3'
p2931
sS's00002317'
p2932
S'107551-54-2'
p2933
sS's00005440'
p2934
S'54932-74-0'
p2935
sS's00010277'
p2936
S'12202-03-8'
p2937
sS's00010270'
p2938
S'12035-20-0'
p2939
sS's00010272'
p2940
S'58984-40-0'
p2941
sS's00005658'
p2942
S'1892-03-1'
p2943
sS's00000111'
p2944
S'12524-20-8'
p2945
sS's00003144'
p2946
S'53789-11-0'
p2947
sS's00010006'
p2948
S'13766-26-2'
p2949
sS's00008882'
p2950
S'3889-76-7'
p2951
sS's00008881'
p2952
S'12011-58-4'
p2953
sS's00010752'
p2954
S'13817-06-6'
p2955
sS's00008888'
p2956
S'70490-94-7'
p2957
sS's00008889'
p2958
S'93105-06-7'
p2959
sS's00000882'
p2960
S'712-95-8'
p2961
sS's00000883'
p2962
S'7293-85-8'
p2963
sS's00000881'
p2964
S'112082-98-1'
p2965
sS's00000886'
p2966
S'831-34-5'
p2967
sS's00000887'
p2968
S'58656-98-7'
p2969
sS's00000884'
p2970
S'16537-17-0'
p2971
sS's00000885'
p2972
S'71145-74-9'
p2973
sS's00006788'
p2974
S'33838-52-7'
p2975
sS's00002689'
p2976
S'917-59-9'
p2977
sS's00006833'
p2978
S'16888-21-4'
p2979
sS's00006832'
p2980
S'7430-25-3'
p2981
sS's00010433'
p2982
S'12187-04-1'
p2983
sS's00003666'
p2984
S'1825-84-9'
p2985
sS's00006167'
p2986
S'21351-31-5'
p2987
sS's00003882'
p2988
S'385441-63-4'
p2989
sS's00006499'
p2990
S'4985-62-0'
p2991
sS's00006498'
p2992
S'86803-04-5'
p2993
sS's00003469'
p2994
S'1117-91-5'
p2995
sS's00010431'
p2996
S'22541-49-7'
p2997
sS's00003145'
p2998
S'75705-16-7'
p2999
sS's00007785'
p3000
S'33815-66-6'
p3001
sS's00007786'
p3002
S'36375-66-3'
p3003
sS's00008955'
p3004
S'65871-23-0'
p3005
sS's00000018'
p3006
S'12379-67-8'
p3007
sS's00008561'
p3008
S'136016-19-8'
p3009
sS's00001914'
p3010
S'32665-18-2'
p3011
sS's00001913'
p3012
S'33948-28-6'
p3013
sS's00008560'
p3014
S'136016-18-7'
p3015
sS's00002278'
p3016
S'1960-67-4'
p3017
sS's00004899'
p3018
S'623-34-7'
p3019
sS's00005246'
p3020
S'102526-10-3'
p3021
sS's00003880'
p3022
S'167644-27-1'
p3023
sS's00010437'
p3024
S'76939-73-6'
p3025
sS's00000450'
p3026
S'54807-86-2'
p3027
sS's00008858'
p3028
S'86728-79-2'
p3029
sS's00008656'
p3030
S'53489-63-7'
p3031
sS's00004306'
p3032
S'37807-16-2'
p3033
sS's00005696'
p3034
S'89031-87-8'
p3035
sS's00004303'
p3036
S'20965-20-2'
p3037
sS's00003848'
p3038
S'19214-96-1'
p3039
sS's00003847'
p3040
S'23197-02-6'
p3041
sS's00003845'
p3042
S'35434-73-2'
p3043
sS's00003844'
p3044
S'13275-25-7'
p3045
sS's00009923'
p3046
S'13537-33-2'
p3047
sS's00010472'
p3048
S'33412-11-2'
p3049
sS's00009924'
p3050
S'72451-97-9'
p3051
sS's00003681'
p3052
S'18264-08-9'
p3053
sS's00003683'
p3054
S'16056-39-6'
p3055
sS's00003682'
p3056
S'16056-35-2'
p3057
sS's00010478'
p3058
S'35911-92-3'
p3059
sS's00000792'
p3060
S'59163-73-4'
p3061
sS's00000793'
p3062
S'76279-71-5'
p3063
sS's00000791'
p3064
S'32019-38-8'
p3065
sS's00005924'
p3066
S'49827-12-5'
p3067
sS's00009261'
p3068
S'56932-36-6'
p3069
sS's00007177'
p3070
S'16156-50-6'
p3071
sS's00010713'
p3072
S'12105-81-6'
p3073
sS's00004415'
p3074
S'65923-98-0'
p3075
sS's00004417'
p3076
S'97797-51-8'
p3077
sS's00004416'
p3078
S'97797-49-4'
p3079
sS's00004419'
p3080
S'114646-21-8'
p3081
sS's00004418'
p3082
S'97797-52-9'
p3083
sS's00010719'
p3084
S'183748-02-9'
p3085
sS's00010718'
p3086
S'11081-35-9'
p3087
sS's00009697'
p3088
S'109284-35-7'
p3089
sS's00010542'
p3090
S'17336-56-0'
p3091
sS's00005873'
p3092
S'64878-06-4'
p3093
sS's00010608'
p3094
S'591755-76-9'
p3095
sS's00009100'
p3096
S'123811-61-0'
p3097
sS's00009101'
p3098
S'422506-71-6'
p3099
sS's00009104'
p3100
S'98983-26-7'
p3101
sS's00005325'
p3102
S'6400-97-1'
p3103
sS's00005326'
p3104
S'31599-94-7'
p3105
sS's00001357'
p3106
S'10388-29-1'
p3107
sS's00001356'
p3108
S'10325-44-7'
p3109
sS's00001350'
p3110
S'43197-83-7'
p3111
sS's00004121'
p3112
S'2714-38-7'
p3113
sS's00009309'
p3114
S'35576-88-6'
p3115
sS's00010606'
p3116
S'63520-46-7'
p3117
sS's00010540'
p3118
S'207602-03-7'
p3119
sS's00009748'
p3120
S'60388-18-3'
p3121
sS's00009218'
p3122
S'86392-32-7'
p3123
sS's00009743'
p3124
S'13966-95-5'
p3125
sS's00009741'
p3126
S'16087-66-4'
p3127
sS's00009746'
p3128
S'14953-28-7'
p3129
sS's00009747'
p3130
S'13569-25-0'
p3131
sS's00002259'
p3132
S'41895-33-4'
p3133
sS's00002257'
p3134
S'102937-69-9'
p3135
sS's00002721'
p3136
S'5852-45-9'
p3137
sS's00002253'
p3138
S'926-09-0'
p3139
sS's00002252'
p3140
S'32585-19-6'
p3141
sS's00005210'
p3142
S'53378-72-6'
p3143
sS's00005216'
p3144
S'102286-49-7'
p3145
sS's00005217'
p3146
S'138495-43-9'
p3147
sS's00005218'
p3148
S'188690-77-9'
p3149
sS's00002497'
p3150
S'3652-86-6'
p3151
sS's00002496'
p3152
S'113788-06-0'
p3153
sS's00000145'
p3154
S'96028-01-2'
p3155
sS's00004122'
p3156
S'380-51-8'
p3157
sS's00000144'
p3158
S'68322-97-4'
p3159
sS's00010768'
p3160
S'13870-16-1'
p3161
sS's00010769'
p3162
S'184825-25-0'
p3163
sS's00010685'
p3164
S'133617-92-2'
p3165
sS's00002673'
p3166
S'44204-02-6'
p3167
sS's00005456'
p3168
S'115523-11-0'
p3169
sS's00005454'
p3170
S'694-21-3'
p3171
sS's00005455'
p3172
S'26650-63-5'
p3173
sS's00005452'
p3174
S'335-03-5'
p3175
sS's00005453'
p3176
S'694-20-2'
p3177
sS's00010046'
p3178
S'34322-11-7'
p3179
sS's00010043'
p3180
S'98214-85-8'
p3181
sS's00010042'
p3182
S'13537-02-5'
p3183
sS's00010041'
p3184
S'13983-20-5'
p3185
sS's00010040'
p3186
S'13517-00-5'
p3187
sS's00010687'
p3188
S'70870-59-6'
p3189
sS's00004570'
p3190
S'115523-07-4'
p3191
sS's00009118'
p3192
S'52881-57-9'
p3193
sS's00004126'
p3194
S'188690-78-0'
p3195
sS's00006794'
p3196
S'14099-62-8'
p3197
sS's00006793'
p3198
S'16675-63-1'
p3199
sS's00002270'
p3200
S'16090-26-9'
p3201
sS's00001234'
p3202
S'39333-53-4'
p3203
sS's00009390'
p3204
S'12014-74-3'
p3205
sS's00002105'
p3206
S'67634-80-4'
p3207
sS's00002104'
p3208
S'67634-82-6'
p3209
sS's00002909'
p3210
S'143962-85-0'
p3211
sS's00003674'
p3212
S'20717-73-1'
p3213
sS's00003675'
p3214
S'20717-74-2'
p3215
sS's00003676'
p3216
S'3972-26-7'
p3217
sS's00009016'
p3218
S'159119-83-2'
p3219
sS's00003678'
p3220
S'4712-36-1'
p3221
sS's00009017'
p3222
S'422506-72-7'
p3223
sS's00003472'
p3224
S'75524-52-6'
p3225
sS's00003473'
p3226
S'2875-97-0'
p3227
sS's00003470'
p3228
S'1184-59-4'
p3229
sS's00003471'
p3230
S'22088-46-6'
p3231
sS's00006485'
p3232
S'51193-06-7'
p3233
sS's00003141'
p3234
S'19721-29-0'
p3235
sS's00001901'
p3236
S'17922-21-3'
p3237
sS's00001902'
p3238
S'56042-11-6'
p3239
sS's00001903'
p3240
S'56598-35-7'
p3241
sS's00007973'
p3242
S'105669-65-6'
p3243
sS's00007202'
p3244
S'3531-47-3'
p3245
sS's00004882'
p3246
S'66517-47-3'
p3247
sS's00004881'
p3248
S'105311-67-9'
p3249
sS's00007209'
p3250
S'54335-88-5'
p3251
sS's00007750'
p3252
S'106292-74-4'
p3253
sS's00010162'
p3254
S'13779-93-6'
p3255
sS's00003210'
p3256
S'99728-16-2'
p3257
sS's00003218'
p3258
S'3976-29-2'
p3259
sS's00010460'
p3260
S'740-42-8'
p3261
sS's00009029'
p3262
S'19469-05-7'
p3263
sS's00000415'
p3264
S'122519-92-0'
p3265
sS's00000417'
p3266
S'137452-19-8'
p3267
sS's00000411'
p3268
S'105731-82-6'
p3269
sS's00000410'
p3270
S'72734-85-1'
p3271
sS's00000412'
p3272
S'139566-53-3'
p3273
sS's00004318'
p3274
S'50284-99-6'
p3275
sS's00004319'
p3276
S'89397-80-8'
p3277
sS's00004468'
p3278
S'75180-01-7'
p3279
sS's00004313'
p3280
S'6065-93-6'
p3281
sS's00004469'
p3282
S'75180-02-8'
p3283
sS's00000637'
p3284
S'559-45-5'
p3285
sS's00010442'
p3286
S'12597-61-4'
p3287
sS's00010445'
p3288
S'12185-19-2'
p3289
sS's00009916'
p3290
S'20424-85-5'
p3291
sS's00009912'
p3292
S'13465-73-1'
p3293
sS's00009910'
p3294
S'35825-58-2'
p3295
sS's00000310'
p3296
S'32313-88-5'
p3297
sS's00000311'
p3298
S'103966-63-8'
p3299
sS's00008357'
p3300
S'15321-51-4'
p3301
sS's00005139'
p3302
S'21961-74-0'
p3303
sS's00005138'
p3304
S'994-46-7'
p3305
sS's00006524'
p3306
S'89829-68-5'
p3307
sS's00006526'
p3308
S'1521-56-8'
p3309
sS's00005137'
p3310
S'17336-79-7'
p3311
sS's00010707'
p3312
S'12053-27-9'
p3313
sS's00010701'
p3314
S'14102-48-8'
p3315
sS's00010703'
p3316
S'49681-65-4'
p3317
sS's00007282'
p3318
S'12192-97-1'
p3319
sS's00009356'
p3320
S'33637-76-2'
p3321
sS's00008511'
p3322
S'770-90-1'
p3323
sS's00008512'
p3324
S'121329-74-6'
p3325
sS's00009596'
p3326
S'69103-86-2'
p3327
sS's00005682'
p3328
S'70594-57-9'
p3329
sS's00005681'
p3330
S'1603-55-0'
p3331
sS's00009179'
p3332
S'4853-80-9'
p3333
sS's00008439'
p3334
S'30439-34-0'
p3335
sS's00010678'
p3336
S'42430-90-0'
p3337
sS's00010679'
p3338
S'574003-31-9'
p3339
sS's00008438'
p3340
S'18760-11-7'
p3341
sS's00003430'
p3342
S'45345-86-6'
p3343
sS's00005047'
p3344
S'631-65-2'
p3345
sS's00010838'
p3346
S'99260-58-9'
p3347
sS's00009779'
p3348
S'33019-21-5'
p3349
sS's00009778'
p3350
S'12596-01-9'
p3351
sS's00009776'
p3352
S'13981-88-9'
p3353
sS's00009775'
p3354
S'16757-14-5'
p3355
sS's00009774'
p3356
S'51621-16-0'
p3357
sS's00009772'
p3358
S'13569-27-2'
p3359
sS's00009770'
p3360
S'17209-59-5'
p3361
sS's00009009'
p3362
S'12334-26-8'
p3363
sS's00009008'
p3364
S'141727-20-0'
p3365
sS's00002248'
p3366
S'72885-11-1'
p3367
sS's00002247'
p3368
S'64919-23-9'
p3369
sS's00002244'
p3370
S'83364-08-3'
p3371
sS's00002243'
p3372
S'19199-91-8'
p3373
sS's00002240'
p3374
S'356535-01-8'
p3375
sS's00002241'
p3376
S'71668-46-7'
p3377
sS's00002484'
p3378
S'16063-33-5'
p3379
sS's00002481'
p3380
S'115523-12-1'
p3381
sS's00010836'
p3382
S'99260-59-0'
p3383
sS's00009595'
p3384
S'69103-83-9'
p3385
sS's00002802'
p3386
S'30687-62-8'
p3387
sS's00002806'
p3388
S'1066-41-7'
p3389
sS's00002807'
p3390
S'917-72-6'
p3391
sS's00005461'
p3392
S'16063-22-2'
p3393
sS's00003959'
p3394
S'4520-67-6'
p3395
sS's00005669'
p3396
S'30395-19-8'
p3397
sS's00005668'
p3398
S'63976-17-0'
p3399
sS's00002614'
p3400
S'149101-19-9'
p3401
sS's00005661'
p3402
S'16972-33-1'
p3403
sS's00005660'
p3404
S'2344-15-2'
p3405
sS's00005663'
p3406
S'14879-42-6'
p3407
sS's00010299'
p3408
S'12137-25-6'
p3409
sS's00005665'
p3410
S'32312-17-7'
p3411
sS's00005664'
p3412
S'15651-51-1'
p3413
sS's00010050'
p3414
S'23178-61-2'
p3415
sS's00010051'
p3416
S'91419-78-2'
p3417
sS's00010053'
p3418
S'13824-71-0'
p3419
sS's00010055'
p3420
S'62064-82-8'
p3421
sS's00010056'
p3422
S'50561-30-3'
p3423
sS's00010058'
p3424
S'13572-99-1'
p3425
sS's00000824'
p3426
S'30626-03-0'
p3427
sS's00000826'
p3428
S'55186-75-9'
p3429
sS's00005678'
p3430
S'28376-10-5'
p3431
sS's00010711'
p3432
S'12012-35-0'
p3433
sS's00006362'
p3434
S'14524-92-6'
p3435
sS's00010717'
p3436
S'12184-84-8'
p3437
sS's00010716'
p3438
S'17693-79-7'
p3439
sS's00010715'
p3440
S'12181-16-7'
p3441
sS's00005579'
p3442
S'24254-20-4'
p3443
sS's00005578'
p3444
S'55980-41-1'
p3445
sS's00003649'
p3446
S'56019-38-6'
p3447
sS's00003648'
p3448
S'56019-37-5'
p3449
sS's00009955'
p3450
S'82323-93-1'
p3451
sS's00000445'
p3452
S'137452-18-7'
p3453
sS's00003043'
p3454
S'12071-35-1'
p3455
sS's00003042'
p3456
S'12071-31-7'
p3457
sS's00003040'
p3458
S'12175-91-6'
p3459
sS's00000240'
p3460
S'1271-19-8'
p3461
sS's00000243'
p3462
S'42463-81-0'
p3463
sS's00007749'
p3464
S'106212-41-3'
p3465
sS's00007219'
p3466
S'71407-77-7'
p3467
sS's00003443'
p3468
S'41407-21-0'
p3469
sS's00003640'
p3470
S'21119-13-1'
p3471
sS's00009280'
p3472
S'16982-22-2'
p3473
sS's00004258'
p3474
S'31450-06-3'
p3475
sS's00006581'
p3476
S'31819-07-5'
p3477
sS's00006580'
p3478
S'13679-64-6'
p3479
sS's00006582'
p3480
S'645-96-5'
p3481
sS's00003911'
p3482
S'79991-58-5'
p3483
sS's00008988'
p3484
S'135659-54-0'
p3485
sS's00008982'
p3486
S'54393-39-4'
p3487
sS's00008986'
p3488
S'157066-31-4'
p3489
sS's00008985'
p3490
S'3802-95-7'
p3491
sS's00006595'
p3492
S'150486-21-8'
p3493
sS's00000409'
p3494
S'59623-12-0'
p3495
sS's00000401'
p3496
S'65597-69-5'
p3497
sS's00009288'
p3498
S'51375-80-5'
p3499
sS's00001759'
p3500
S'14354-59-7'
p3501
sS's00000858'
p3502
S'59163-70-1'
p3503
sS's00009909'
p3504
S'49860-18-6'
p3505
sS's00010458'
p3506
S'14791-69-6'
p3507
sS's00010459'
p3508
S'740-42-8'
p3509
sS's00010455'
p3510
S'1344-28-1'
p3511
sS's00010456'
p3512
S'1344-28-1'
p3513
sS's00009903'
p3514
S'13598-35-1'
p3515
sS's00000324'
p3516
S'31082-68-5'
p3517
sS's00008745'
p3518
S'73300-45-5'
p3519
sS's00008744'
p3520
S'17513-58-5'
p3521
sS's00008749'
p3522
S'2327-88-0'
p3523
sS's00004186'
p3524
S'161791-33-9'
p3525
sS's00004184'
p3526
S'1683-88-1'
p3527
sS's00004182'
p3528
S'590-91-0'
p3529
sS's00009588'
p3530
S'14989-24-3'
p3531
sS's00001594'
p3532
S'35684-26-5'
p3533
sS's00009581'
p3534
S'12019-06-6'
p3535
sS's00009583'
p3536
S'12054-11-4'
p3537
sS's00008979'
p3538
S'16566-10-2'
p3539
sS's00005690'
p3540
S'719-27-7'
p3541
sS's00005876'
p3542
S'2720-41-4'
p3543
sS's00005056'
p3544
S'55364-35-7'
p3545
sS's00005054'
p3546
S'27160-24-3'
p3547
sS's00005055'
p3548
S'20733-05-5'
p3549
sS's00004506'
p3550
S'3542-00-5'
p3551
sS's00009762'
p3552
S'12159-89-6'
p3553
sS's00009763'
p3554
S'15181-47-2'
p3555
sS's00009764'
p3556
S'53664-05-4'
p3557
sS's00009765'
p3558
S'16027-92-2'
p3559
sS's00009766'
p3560
S'14986-72-2'
p3561
sS's00009768'
p3562
S'16068-96-5'
p3563
sS's00009769'
p3564
S'11128-24-8'
p3565
sS's00005900'
p3566
S'3794-80-7'
p3567
sS's00005903'
p3568
S'26168-37-6'
p3569
sS's00002272'
p3570
S'141632-18-0'
p3571
sS's00002903'
p3572
S'42087-73-0'
p3573
sS's00002275'
p3574
S'58734-91-1'
p3575
sS's00005583'
p3576
S'85288-92-2'
p3577
sS's00005585'
p3578
S'64987-88-8'
p3579
sS's00005288'
p3580
S'36664-93-4'
p3581
sS's00005279'
p3582
S'1270-98-0'
p3583
sS's00010110'
p3584
S'32750-86-0'
p3585
sS's00010113'
p3586
S'62470-71-7'
p3587
sS's00003229'
p3588
S'677-56-5'
p3589
sS's00010114'
p3590
S'62803-12-7'
p3591
sS's00007409'
p3592
S'90929-07-0'
p3593
sS's00002359'
p3594
S'65064-76-8'
p3595
sS's00002875'
p3596
S'220625-27-4'
p3597
sS's00002874'
p3598
S'31452-29-6'
p3599
sS's00002876'
p3600
S'393794-52-0'
p3601
sS's00002871'
p3602
S'24521-77-5'
p3603
sS's00002615'
p3604
S'73166-79-7'
p3605
sS's00002610'
p3606
S'31366-17-3'
p3607
sS's00002613'
p3608
S'60203-82-9'
p3609
sS's00005406'
p3610
S'105643-80-9'
p3611
sS's00001804'
p3612
S'12088-11-8'
p3613
sS's00002581'
p3614
S'16520-14-2'
p3615
sS's00002580'
p3616
S'16520-00-6'
p3617
sS's00002251'
p3618
S'17222-37-6'
p3619
sS's00002589'
p3620
S'397886-38-3'
p3621
sS's00010026'
p3622
S'66106-83-0'
p3623
sS's00010021'
p3624
S'12400-28-1'
p3625
sS's00010020'
p3626
S'14452-75-6'
p3627
sS's00010028'
p3628
S'81323-72-0'
p3629
sS's00003585'
p3630
S'37726-42-4'
p3631
sS's00002053'
p3632
S'50654-35-8'
p3633
sS's00002725'
p3634
S'61599-84-6'
p3635
sS's00002724'
p3636
S'18998-80-6'
p3637
sS's00002054'
p3638
S'36945-13-8'
p3639
sS's00002299'
p3640
S'50876-28-3'
p3641
sS's00002298'
p3642
S'23830-52-6'
p3643
sS's00002291'
p3644
S'1718-18-9'
p3645
sS's00002293'
p3646
S'354-89-2'
p3647
sS's00002294'
p3648
S'71701-41-2'
p3649
sS's00002297'
p3650
S'23830-51-5'
p3651
sS's00000213'
p3652
S'95387-63-6'
p3653
sS's00010336'
p3654
S'117800-16-5'
p3655
s.