(dp1
S's00004158'
p2
S'C4H3F6O3'
p3
sS's00004159'
p4
S'C4H3F7O'
p5
sS's00004154'
p6
S'C4H3F6'
p7
sS's00004155'
p8
S'C4H3F6NO5'
p9
sS's00004156'
p10
S'C4H3F6O'
p11
sS's00008232'
p12
S'C8H7NS'
p13
sS's00004152'
p14
S'C4H3F3N'
p15
sS's00000008'
p16
S'Carbonyls'
p17
sS's00001530'
p18
S'C13H18ClNO2'
p19
sS's00000000'
p20
S'Unknown'
p21
sS's00000001'
p22
S'M'
sS's00003261'
p23
S'C3H3BrF3'
p24
sS's00006117'
p25
S'C6H13BO'
p26
sS's00009055'
p27
S'CH2F3Si'
p28
sS's00002532'
p29
S'C2H3FO2'
p30
sS's00009051'
p31
S'CH2DS'
p32
sS's00005333'
p33
S'C5H6F6'
p34
sS's00003028'
p35
S'C2N2'
p36
sS's00005331'
p37
S'C5H6F3O'
p38
sS's00009114'
p39
S'CH3Cl2Sn'
p40
sS's00006877'
p41
S'C7H11NO2S'
p42
sS's00006878'
p43
S'C7H11NO2S'
p44
sS's00005708'
p45
S'C6F14N2'
p46
sS's00004124'
p47
S'C4H2F6O3'
p48
sS's00004499'
p49
S'C4H7NO2S'
p50
sS's00005229'
p51
S'C5H3F8'
p52
sS's00004553'
p53
S'C4H8BrO2'
p54
sS's00002200'
p55
S'C2ClF2O'
p56
sS's00009610'
p57
S'DClS'
p58
sS's00003215'
p59
S'C3H2D5'
p60
sS's00009615'
p61
S'DN2O'
p62
sS's00009203'
p63
S'CH4F2Si'
p64
sS's00005382'
p65
S'C5H7F3'
p66
sS's00003110'
p67
S'C3Cl2F5'
p68
sS's00003113'
p69
S'C3Cl4F3O'
p70
sS's00003112'
p71
S'C3Cl3F4'
p72
sS's00002383'
p73
S'C2H2D4Ge'
p74
sS's00002380'
p75
S'C2H2D3Cl'
p76
sS's00002386'
p77
S'C2H2DN'
p78
sS's00002384'
p79
S'C2H2D4Ge'
p80
sS's00002389'
p81
S'C2H2F'
p82
sS's00005553'
p83
S'C5H9Cl'
p84
sS's00002546'
p85
S'C2H3N3S'
p86
sS's00006593'
p87
S'C6H7F3'
p88
sS's00006594'
p89
S'C6H7F3'
p90
sS's00003354'
p91
S'C3H4Cl2'
p92
sS's00007423'
p93
S'C7H8F'
p94
sS's00007424'
p95
S'C7H8F'
p96
sS's00005554'
p97
S'C5H9Cl'
p98
sS's00002941'
p99
S'C2HCl3FO'
p100
sS's00002942'
p101
S'C2HCl3FO2'
p102
sS's00001746'
p103
S'C15H11ClN2O2'
p104
sS's00001747'
p105
S'C15H11ClN2O2'
p106
sS's00001745'
p107
S'C15H11ClN2O2'
p108
sS's00001218'
p109
S'C12H16ClNO2'
p110
sS's00009874'
p111
S'H2NP'
p112
sS's00009875'
p113
S'H2NSb'
p114
sS's00009876'
p115
S'H2NSb'
p116
sS's00009877'
p117
S'H2NSb'
p118
sS's00002319'
p119
S'C2H2BrO'
p120
sS's00009872'
p121
S'H2NP'
p122
sS's00009873'
p123
S'H2NP'
p124
sS's00009975'
p125
S'H5NSi'
p126
sS's00005654'
p127
S'C5HF10'
p128
sS's00003931'
p129
S'C4D2FeO4'
p130
sS's00002641'
p131
S'C2H4Mu'
p132
sS's00009878'
p133
S'H2NSb'
p134
sS's00003272'
p135
S'C3H3Cl3F'
p136
sS's00005445'
p137
S'C5H8ClO'
p138
sS's00005444'
p139
S'C5H8ClO'
p140
sS's00005447'
p141
S'C5H8ClO'
p142
sS's00005446'
p143
S'C5H8ClO'
p144
sS's00010278'
p145
S'O(1S)'
p146
sS's00009501'
p147
S'ClF4Si2'
p148
sS's00005443'
p149
S'C5H8ClO'
p150
sS's00005449'
p151
S'C5H8DClO2'
p152
sS's00005448'
p153
S'C5H8ClO'
p154
sS's00010003'
p155
S'HAsOSn'
p156
sS's00010002'
p157
S'HAsOSn'
p158
sS's00002790'
p159
S'C2H6BrS'
p160
sS's00010070'
p161
S'HN'
p162
sS's00010000'
p163
S'HAsBeSn'
p164
sS's00008883'
p165
S'CCl2'
p166
sS's00004343'
p167
S'C4H6F3'
p168
sS's00002911'
p169
S'C2HBrCl3'
p170
sS's00008884'
p171
S'CCl2'
p172
sS's00002160'
p173
S'C2Cl2'
p174
sS's00000048'
p175
S'Ar'
p176
sS's00002164'
p177
S'C2Cl2F3'
p178
sS's00009375'
p179
S'Ca'
p180
sS's00009806'
p181
S'H12Ge2Si4'
p182
sS's00002009'
p183
S'C19H14N2O2S'
p184
sS's00000294'
p185
S'C10H11ClO3'
p186
sS's00002366'
p187
S'C2H2ClO3'
p188
sS's00009575'
p189
S'Cu'
p190
sS's00009574'
p191
S'Cu'
p192
sS's00003142'
p193
S'C3F4O'
p194
sS's00006789'
p195
S'C7D5'
p196
sS's00002506'
p197
S'C2H3DCl'
p198
sS's00003146'
p199
S'C3F5O2'
p200
sS's00003147'
p201
S'C3F5O3'
p202
sS's00005803'
p203
S'C6H10F3'
p204
sS's00009259'
p205
S'CHBr2O'
p206
sS's00009393'
p207
S'Cl'
p208
sS's00009394'
p209
S'Cl'
p210
sS's00006784'
p211
S'C7Cl8FeO3'
p212
sS's00004695'
p213
S'C4H9As'
p214
sS's00005789'
p215
S'C6H10Cl'
p216
sS's00004161'
p217
S'C4H3F7O'
p218
sS's00004160'
p219
S'C4H3F7O'
p220
sS's00009714'
p221
S'F4Si2'
p222
sS's00008379'
p223
S'C9H10ClO3'
p224
sS's00009892'
p225
S'H2Pd2'
p226
sS's00010898'
p227
S'C5H7'
p228
sS's00009891'
p229
S'H2Pd'
p230
sS's00010899'
p231
S'C8H10'
p232
sS's00002267'
p233
S'C2F3NO5'
p234
sS's00002915'
p235
S'C2HBrF3'
p236
sS's00002505'
p237
S'C2H3DCl'
p238
sS's00002504'
p239
S'C2H3DCl'
p240
sS's00002507'
p241
S'C2H3DN'
p242
sS's00009024'
p243
S'CH2BrO'
p244
sS's00002268'
p245
S'C2F3O'
p246
sS's00002500'
p247
S'C2H3D3O'
p248
sS's00002503'
p249
S'C2H3D4N2'
p250
sS's00005244'
p251
S'C5H4F7'
p252
sS's00008958'
p253
S'CDBr2'
p254
sS's00002466'
p255
S'C2H3Cl2FO2'
p256
sS's00002467'
p257
S'C2H3Cl2NO4'
p258
sS's00002468'
p259
S'C2H3Cl2O'
p260
sS's00008953'
p261
S'CD4N'
p262
sS's00010896'
p263
S'C4H5'
p264
sS's00008957'
p265
S'CD5N'
p266
sS's00010100'
p267
S'HO'
p268
sS's00010897'
p269
S'C4H7'
p270
sS's00010105'
p271
S'HO2S'
p272
sS's00004564'
p273
S'C4H8D'
p274
sS's00003384'
p275
S'C3H4D3'
p276
sS's00001857'
p277
S'C16H14D2O2'
p278
sS's00003380'
p279
S'C3H4D2N2'
p280
sS's00003381'
p281
S'C3H4D2N2'
p282
sS's00009094'
p283
S'CH3AsSn'
p284
sS's00003383'
p285
S'C3H4D3'
p286
sS's00009152'
p287
S'CH3Li'
p288
sS's00009623'
p289
S'DOV'
p290
sS's00003388'
p291
S'C3H4F2I'
p292
sS's00002142'
p293
S'C2Br'
p294
sS's00001858'
p295
S'C16H14D2O2'
p296
sS's00009462'
p297
S'Cl4Ge2'
p298
sS's00003568'
p299
S'C3H6Cu2'
p300
sS's00003567'
p301
S'C3H6ClO'
p302
sS's00003205'
p303
S'C3H2Cl2F3'
p304
sS's00002607'
p305
S'C2H4ClO'
p306
sS's00003207'
p307
S'C3H2Cl2O'
p308
sS's00002212'
p309
S'C2ClO2'
p310
sS's00003203'
p311
S'C3H2BrF4'
p312
sS's00003209'
p313
S'C3H2Cl3F2'
p314
sS's00003367'
p315
S'C3H4ClF3O'
p316
sS's00002608'
p317
S'C2H4ClO'
p318
sS's00002609'
p319
S'C2H4ClO'
p320
sS's00002594'
p321
S'C2H4Cl2'
p322
sS's00009821'
p323
S'H2Au2'
p324
sS's00002591'
p325
S'C2H4BrO2'
p326
sS's00000825'
p327
S'C10H9D3O2'
p328
sS's00004862'
p329
S'C5D8'
p330
sS's00010032'
p331
S'HClO3'
p332
sS's00009064'
p333
S'CH2Li'
p334
sS's00002691'
p335
S'C2H4S'
p336
sS's00003151'
p337
S'C3F6O'
p338
sS's00004308'
p339
S'C4H6Cl'
p340
sS's00005978'
p341
S'C6H12Cu'
p342
sS's00004305'
p343
S'C4H6Cl'
p344
sS's00004304'
p345
S'C4H6Cl'
p346
sS's00004307'
p347
S'C4H6Cl'
p348
sS's00004261'
p349
S'C4H5F4'
p350
sS's00000644'
p351
S'C10H17O3'
p352
sS's00009848'
p353
S'H2FLiSi'
p354
sS's00000646'
p355
S'C10H17O3'
p356
sS's00003843'
p357
S'C3HCl3F3'
p358
sS's00003842'
p359
S'C3HCl3F3'
p360
sS's00003846'
p361
S'C3HD6'
p362
sS's00009842'
p363
S'H2ClLiSi'
p364
sS's00009920'
p365
S'H3ClSi'
p366
sS's00009921'
p367
S'H3Cu2N'
p368
sS's00002320'
p369
S'C2H2BrO2'
p370
sS's00002323'
p371
S'C2H2Cl2'
p372
sS's00003385'
p373
S'C3H4F'
p374
sS's00009535'
p375
S'ClO4'
p376
sS's00003850'
p377
S'C3HF4O'
p378
sS's00002328'
p379
S'C2H2Cl2F'
p380
sS's00009850'
p381
S'H2FeN2O'
p382
sS's00010243'
p383
S'NO'
p384
sS's00000354'
p385
S'C10H12ClN'
p386
sS's00006745'
p387
S'C6H9Cl3'
p388
sS's00002334'
p389
S'C2H2Cl2FO'
p390
sS's00001524'
p391
S'C13H15NO2S'
p392
sS's00002449'
p393
S'C2H3Br2'
p394
sS's00009286'
p395
S'CHD2S'
p396
sS's00009284'
p397
S'CHD2NO2'
p398
sS's00009324'
p399
S'CHNaO3'
p400
sS's00003557'
p401
S'C3H6Cl'
p402
sS's00009991'
p403
S'H8B2Si'
p404
sS's00009990'
p405
S'H7BSi'
p406
sS's00005287'
p407
S'C5H5F7'
p408
sS's00002816'
p409
S'C2H6Ge'
p410
sS's00005282'
p411
S'C5H5D4O'
p412
sS's00002811'
p413
S'C2H6F4'
p414
sS's00009109'
p415
S'CH3Cl2'
p416
sS's00009263'
p417
S'CHBrClO'
p418
sS's00003748'
p419
S'C3H7Sb'
p420
sS's00005321'
p421
S'C5H6D2'
p422
sS's00002819'
p423
S'C2H6Ge'
p424
sS's00002818'
p425
S'C2H6Ge'
p426
sS's00008917'
p427
S'CClNO2'
p428
sS's00008912'
p429
S'CClFO2'
p430
sS's00008913'
p431
S'CClFOS'
p432
sS's00009521'
p433
S'ClN'
p434
sS's00003251'
p435
S'C3H2Y'
p436
sS's00009749'
p437
S'FN'
p438
sS's00004718'
p439
S'C4H9F'
p440
sS's00003109'
p441
S'C3Cl2F5'
p442
sS's00003104'
p443
S'C3BrF6'
p444
sS's00003103'
p445
S'C3AsF9'
p446
sS's00002391'
p447
S'C2H2F2'
p448
sS's00004919'
p449
S'C5H10NO2S'
p450
sS's00002254'
p451
S'C2DCl5'
p452
sS's00003372'
p453
S'C3H4ClO2'
p454
sS's00002885'
p455
S'C2H7NS'
p456
sS's00002493'
p457
S'C2H3ClO2S'
p458
sS's00005219'
p459
S'C5H2F9'
p460
sS's00002606'
p461
S'C2H4ClO'
p462
sS's00008962'
p463
S'CDF2'
p464
sS's00004820'
p465
S'C4HF6O4'
p466
sS's00004823'
p467
S'C4HF8'
p468
sS's00003208'
p469
S'C3H2Cl2O'
p470
sS's00001829'
p471
S'C15H9ClN2O'
p472
sS's00001828'
p473
S'C15H9ClN2O'
p474
sS's00002955'
p475
S'C2HClF3'
p476
sS's00001823'
p477
S'C15H24FeO3'
p478
sS's00002950'
p479
S'C2HCl4NO4'
p480
sS's00002951'
p481
S'C2HCl4O2'
p482
sS's00000605'
p483
S'C10H16CuO4'
p484
sS's00000606'
p485
S'C10H16D2'
p486
sS's00000355'
p487
S'C10H12FeO4'
p488
sS's00002777'
p489
S'C2H5OS'
p490
sS's00003258'
p491
S'C3H3Br2'
p492
sS's00003259'
p493
S'C3H3BrF3'
p494
sS's00000211'
p495
S'C10Cl4Fe2O8'
p496
sS's00002771'
p497
S'C2H5O2S'
p498
sS's00003926'
p499
S'C4D'
p500
sS's00003927'
p501
S'C4D'
p502
sS's00003920'
p503
S'C4Cl3F6'
p504
sS's00004918'
p505
S'C5H10NO2S'
p506
sS's00005457'
p507
S'C5H8F3'
p508
sS's00005450'
p509
S'C5H8DClO2'
p510
sS's00005451'
p511
S'C5H8DClO2'
p512
sS's00005458'
p513
S'C5H8F3'
p514
sS's00005459'
p515
S'C5H8F3'
p516
sS's00007239'
p517
S'C7H5ClO'
p518
sS's00008765'
p519
S'C9H7ClN4S'
p520
sS's00008764'
p521
S'C9H7ClN4O'
p522
sS's00010044'
p523
S'HDN'
p524
sS's00007237'
p525
S'C7H5Cl2'
p526
sS's00002179'
p527
S'C2Cl3F2'
p528
sS's00002176'
p529
S'C2Cl2O2'
p530
sS's00002171'
p531
S'C2Cl2FNO5'
p532
sS's00002172'
p533
S'C2Cl2FO'
p534
sS's00002173'
p535
S'C2Cl2FO3'
p536
sS's00009813'
p537
S'H2AsBSn'
p538
sS's00002378'
p539
S'C2H2D2Si'
p540
sS's00009816'
p541
S'H2AsN'
p542
sS's00009817'
p543
S'H2AsN'
p544
sS's00009814'
p545
S'H2AsBSn'
p546
sS's00009815'
p547
S'H2AsN'
p548
sS's00002372'
p549
S'C2H2D2Cl'
p550
sS's00002373'
p551
S'C2H2D2Cl'
p552
sS's00003953'
p553
S'C4F7O'
p554
sS's00009819'
p555
S'H2AsNSn'
p556
sS's00002376'
p557
S'C2H2D2Si'
p558
sS's00002377'
p559
S'C2H2D2Si'
p560
sS's00002374'
p561
S'C2H2D2NO'
p562
sS's00009562'
p563
S'Cs'
p564
sS's00001676'
p565
S'C14H18Cl6'
p566
sS's00003177'
p567
S'C3FeN4O3'
p568
sS's00009227'
p569
S'CH4OSc'
p570
sS's00003171'
p571
S'C3F7O2'
p572
sS's00004681'
p573
S'C4H8S'
p574
sS's00006797'
p575
S'C7F8FeO3'
p576
sS's00006790'
p577
S'C7D6'
p578
sS's00001001'
p579
S'C11H17ClOSi'
p580
sS's00001002'
p581
S'C11H17ClOSi'
p582
sS's00003308'
p583
S'C3H3F5O'
p584
sS's00004074'
p585
S'C4H12Ge2'
p586
sS's00006090'
p587
S'C6H12S'
p588
sS's00001992'
p589
S'C19H12N2OS'
p590
sS's00006316'
p591
S'C6H18Ge2'
p592
sS's00008380'
p593
S'C9H10ClO3'
p594
sS's00009705'
p595
S'F4OXe'
p596
sS's00002926'
p597
S'C2HCl2F2'
p598
sS's00002925'
p599
S'C2HCl2F2'
p600
sS's00002924'
p601
S'C2HCl2F2'
p602
sS's00009035'
p603
S'CH2ClNO4'
p604
sS's00009036'
p605
S'CH2ClO'
p606
sS's00002519'
p607
S'C2H3F2O'
p608
sS's00009135'
p609
S'CH3DOS'
p610
sS's00006077'
p611
S'C6H12O5S'
p612
sS's00002453'
p613
S'C2H3BrF4N2'
p614
sS's00003474'
p615
S'C3H5DN2'
p616
sS's00008924'
p617
S'CCuS2'
p618
sS's00001863'
p619
S'C16H15DO2'
p620
sS's00006353'
p621
S'C6H3F10'
p622
sS's00001866'
p623
S'C16H15DO2'
p624
sS's00010139'
p625
S'I'
sS's00001864'
p626
S'C16H15DO2'
p627
sS's00003821'
p628
S'C3H9NOSi'
p629
sS's00007572'
p630
S'C8H10Cl6'
p631
sS's00007571'
p632
S'C8H10'
p633
sS's00009145'
p634
S'CH3FS'
p635
sS's00009146'
p636
S'CH3FS'
p637
sS's00009142'
p638
S'CH3FO'
p639
sS's00000253'
p640
S'C10H10N4OS'
p641
sS's00000525'
p642
S'C10H15D3'
p643
sS's00000524'
p644
S'C10H15D3'
p645
sS's00000254'
p646
S'C10H10N4S'
p647
sS's00002637'
p648
S'C2H4Ge'
p649
sS's00002636'
p650
S'C2H4F5S'
p651
sS's00003216'
p652
S'C3H2D5'
p653
sS's00005228'
p654
S'C5H3F8'
p655
sS's00003214'
p656
S'C3H2D4N2'
p657
sS's00002201'
p658
S'C2ClF2O3'
p659
sS's00000309'
p660
S'C10H11IO2'
p661
sS's00003604'
p662
S'C3H6Ni'
p663
sS's00002204'
p664
S'C2ClF4'
p665
sS's00005221'
p666
S'C5H2F9I'
p667
sS's00005552'
p668
S'C5H9BrO3'
p669
sS's00005222'
p670
S'C5H2F9I'
p671
sS's00005555'
p672
S'C5H9Cl'
p673
sS's00003350'
p674
S'C3H4Cl'
p675
sS's00004819'
p676
S'C4HF6O2'
p677
sS's00005655'
p678
S'C5HF10'
p679
sS's00005656'
p680
S'C5HF10I'
p681
sS's00005657'
p682
S'C5HF10I'
p683
sS's00004815'
p684
S'C4HD'
p685
sS's00004814'
p686
S'C4HD'
p687
sS's00010001'
p688
S'HAsBeSn'
p689
sS's00004816'
p690
S'C4HD3'
p691
sS's00010005'
p692
S'HAsSn'
p693
sS's00010004'
p694
S'HAsSn'
p695
sS's00000414'
p696
S'C10H13D5'
p697
sS's00003281'
p698
S'C3H3ClN'
p699
sS's00003280'
p700
S'C3H3ClF4O'
p701
sS's00000413'
p702
S'C10H13D5'
p703
sS's00006674'
p704
S'C6H8D2'
p705
sS's00001235'
p706
S'C12H17F3OSi'
p707
sS's00007104'
p708
S'C7H14S2'
p709
sS's00007105'
p710
S'C7H14S2'
p711
sS's00004251'
p712
S'C4H5F3'
p713
sS's00010443'
p714
S'Xe'
p715
sS's00003857'
p716
S'C3HF6'
p717
sS's00007296'
p718
S'C7H6CrO'
p719
sS's00003851'
p720
S'C3HF5I'
p721
sS's00003852'
p722
S'C3HF5I'
p723
sS's00003853'
p724
S'C3HF5O'
p725
sS's00009915'
p726
S'H3Cl3Si2'
p727
sS's00009914'
p728
S'H3Cl3Si2'
p729
sS's00009913'
p730
S'H3Cl2NSi'
p731
sS's00002333'
p732
S'C2H2Cl2FNO4'
p733
sS's00008425'
p734
S'C9H10O2S'
p735
sS's00009520'
p736
S'ClN'
p737
sS's00009918'
p738
S'H3ClO3Si'
p739
sS's00010256'
p740
S'Na'
p741
sS's00010257'
p742
S'Na'
p743
sS's00005790'
p744
S'C6H10Cl'
p745
sS's00010317'
p746
S'O3'
p747
sS's00010312'
p748
S'O2Yb'
p749
sS's00000645'
p750
S'C10H17O3'
p751
sS's00002371'
p752
S'C2H2D2Cl'
p753
sS's00006396'
p754
S'C6H4ClO2'
p755
sS's00004264'
p756
S'C4H5Hg'
p757
sS's00006280'
p758
S'C6H15NS'
p759
sS's00006525'
p760
S'C6H6D4'
p761
sS's00009844'
p762
S'H2ClNSi'
p763
sS's00002145'
p764
S'C2Br2F3'
p765
sS's00009292'
p766
S'CHDI'
p767
sS's00009293'
p768
S'CHDNO'
p769
sS's00009355'
p770
S'CNi'
p771
sS's00009354'
p772
S'CNaO3'
p773
sS's00002149'
p774
S'C2BrCl4'
p775
sS's00002148'
p776
S'C2Br5'
p777
sS's00009840'
p778
S'H2Cl4Si2'
p779
sS's00009599'
p780
S'D3NOSi'
p781
sS's00009598'
p782
S'D3N2'
p783
sS's00009984'
p784
S'H6N2O6S2'
p785
sS's00008515'
p786
S'C9H12D4O2'
p787
sS's00008516'
p788
S'C9H12FeO3'
p789
sS's00009988'
p790
S'H6Sn2'
p791
sS's00003448'
p792
S'C3H5Cl'
p793
sS's00003007'
p794
S'C2HF8S'
p795
sS's00002412'
p796
S'C2H2F4O'
p797
sS's00002411'
p798
S'C2H2F4O'
p799
sS's00002417'
p800
S'C2H2FO2'
p801
sS's00002416'
p802
S'C2H2F7S'
p803
sS's00005685'
p804
S'C6D18OSi2'
p805
sS's00009277'
p806
S'CHClFO2'
p807
sS's00003008'
p808
S'C2HFO'
p809
sS's00001343'
p810
S'C12H24Cu'
p811
sS's00009275'
p812
S'CHClF2O2'
p813
sS's00003133'
p814
S'C3D7'
p815
sS's00006459'
p816
S'C6H5D'
p817
sS's00006458'
p818
S'C6H5D'
p819
sS's00009871'
p820
S'H2NP'
p821
sS's00002249'
p822
S'C2D6NO'
p823
sS's00003311'
p824
S'C3H3F5O'
p825
sS's00002245'
p826
S'C2D5S'
p827
sS's00009005'
p828
S'CFO4S'
p829
sS's00009006'
p830
S'CFOS'
p831
sS's00009974'
p832
S'H5Ge2'
p833
sS's00002485'
p834
S'C2H3ClFO'
p835
sS's00005616'
p836
S'C5H9NS'
p837
sS's00003480'
p838
S'C3H5F2'
p839
sS's00002482'
p840
S'C2H3ClF2O'
p841
sS's00003484'
p842
S'C3H5F2O2'
p843
sS's00008604'
p844
S'C9H14D2'
p845
sS's00008970'
p846
S'CF'
p847
sS's00008971'
p848
S'CF'
p849
sS's00008603'
p850
S'C9H14D2'
p851
sS's00001830'
p852
S'C15H9ClN2O'
p853
sS's00002809'
p854
S'C2H6DN2'
p855
sS's00002967'
p856
S'C2HD3Cl'
p857
sS's00006795'
p858
S'C7F5O'
p859
sS's00009074'
p860
S'CH2Ni'
p861
sS's00002801'
p862
S'C2H6ClS'
p863
sS's00002969'
p864
S'C2HD3Cl'
p865
sS's00002968'
p866
S'C2HD3Cl'
p867
sS's00002804'
p868
S'C2H6D2N2'
p869
sS's00000209'
p870
S'C'
sS's00009952'
p871
S'H4ClNSi'
p872
sS's00009951'
p873
S'H4ClGe2'
p874
sS's00003266'
p875
S'C3H3Cl2'
p876
sS's00003262'
p877
S'C3H3Cl'
p878
sS's00002987'
p879
S'C2HF2O2'
p880
sS's00003260'
p881
S'C3H3BrF3'
p882
sS's00010292'
p883
S'O2'
p884
sS's00002817'
p885
S'C2H6Ge'
p886
sS's00010297'
p887
S'O2Pd'
p888
sS's00008074'
p889
S'C8H19NS'
p890
sS's00010350'
p891
S'OS'
p892
sS's00002998'
p893
S'C2HF4O'
p894
sS's00010198'
p895
S'LiNO'
p896
sS's00009047'
p897
S'CH2DNO2'
p898
sS's00004848'
p899
S'C5Cl4FeO3'
p900
sS's00000068'
p901
S'AsLiSn'
p902
sS's00000065'
p903
S'AsFSn'
p904
sS's00000066'
p905
S'AsFSn'
p906
sS's00000067'
p907
S'AsLiSn'
p908
sS's00008094'
p909
S'C8H24N4Ti'
p910
sS's00003278'
p911
S'C3H3ClF4'
p912
sS's00002185'
p913
S'C2Cl3NO5'
p914
sS's00002186'
p915
S'C2Cl3O'
p916
sS's00002188'
p917
S'C2Cl3O3'
p918
sS's00004283'
p919
S'C4H5NO2S'
p920
sS's00003864'
p921
S'C3HF6O2'
p922
sS's00000909'
p923
S'C11H14ClN'
p924
sS's00003949'
p925
S'C4F6O7'
p926
sS's00003861'
p927
S'C3HF6O'
p928
sS's00003860'
p929
S'C3HF6NO4'
p930
sS's00003863'
p931
S'C3HF6O2'
p932
sS's00009820'
p933
S'H2AsNSn'
p934
sS's00002345'
p935
S'C2H2Cl3NO4'
p936
sS's00009829'
p937
S'H2BiN'
p938
sS's00009828'
p939
S'H2BeN2O'
p940
sS's00007748'
p941
S'C8H12F6'
p942
sS's00010228'
p943
S'N2'
p944
sS's00009559'
p945
S'CrO2S'
p946
sS's00010220'
p947
S'Mu'
p948
sS's00004142'
p949
S'C4H3Cl3N'
p950
sS's00004141'
p951
S'C4H3Cl3F3'
p952
sS's00006834'
p953
S'C7H10Cl3'
p954
sS's00001545'
p955
S'C13H20NP'
p956
sS's00000011'
p957
S'Adduct'
p958
sS's00000010'
p959
S'products'
p960
sS's00000013'
p961
S'other products'
p962
sS's00000012'
p963
S'air'
p964
sS's00003279'
p965
S'C3H3ClF4O'
p966
sS's00005672'
p967
S'C6AsF15'
p968
sS's00009300'
p969
S'CHF2O'
p970
sS's00004700'
p971
S'C4H9Cl'
p972
sS's00008251'
p973
S'C8H8Br'
p974
sS's00002522'
p975
S'C2H3F2O2'
p976
sS's00002521'
p977
S'C2H3F2O2'
p978
sS's00002520'
p979
S'C2H3F2O2'
p980
sS's00002231'
p981
S'C2D4Cl'
p982
sS's00002525'
p983
S'C2H3F3O'
p984
sS's00009042'
p985
S'CH2D2N'
p986
sS's00009122'
p987
S'CH3ClO2S'
p988
sS's00002528'
p989
S'C2H3F5Si'
p990
sS's00009048'
p991
S'CH2DO'
p992
sS's00009129'
p993
S'CH3D2Si'
p994
sS's00005710'
p995
S'C6F4FeO4'
p996
sS's00008935'
p997
S'CD2NO'
p998
sS's00008932'
p999
S'CD2F2'
p1000
sS's00008933'
p1001
S'CD2I'
p1002
sS's00003449'
p1003
S'C3H5Cl'
p1004
sS's00008931'
p1005
S'CD2F'
p1006
sS's00005227'
p1007
S'C5H3F8'
p1008
sS's00004875'
p1009
S'C5F4FeO3'
p1010
sS's00003168'
p1011
S'C3F7NO4'
p1012
sS's00009608'
p1013
S'DBrO'
p1014
sS's00006401'
p1015
S'C6H4D6'
p1016
sS's00009178'
p1017
S'CH3O2S'
p1018
sS's00009604'
p1019
S'D5Si2'
p1020
sS's00003164'
p1021
S'C3F7N2'
p1022
sS's00003167'
p1023
S'C3F7NO4'
p1024
sS's00003223'
p1025
S'C3H2F4I'
p1026
sS's00002625'
p1027
S'C2H4DN'
p1028
sS's00003227'
p1029
S'C3H2F5O'
p1030
sS's00003226'
p1031
S'C3H2F5'
p1032
sS's00002789'
p1033
S'C2H6Bi'
p1034
sS's00003224'
p1035
S'C3H2F4I'
p1036
sS's00009093'
p1037
S'CH3AsSn'
p1038
sS's00003204'
p1039
S'C3H2BrF4'
p1040
sS's00002234'
p1041
S'C2D4Mu'
p1042
sS's00002232'
p1043
S'C2D4Cl'
p1044
sS's00003346'
p1045
S'C3H4BrF2'
p1046
sS's00003349'
p1047
S'C3H4Cl'
p1048
sS's00005230'
p1049
S'C5H3F8I'
p1050
sS's00005231'
p1051
S'C5H3F8I'
p1052
sS's00005788'
p1053
S'C6H10Cl'
p1054
sS's00008737'
p1055
S'C9H21B'
p1056
sS's00004807'
p1057
S'C4H9P'
p1058
sS's00008980'
p1059
S'CF2O5S'
p1060
sS's00010010'
p1061
S'HBFO'
p1062
sS's00006669'
p1063
S'C6H8Cl'
p1064
sS's00003298'
p1065
S'C3H3F3I'
p1066
sS's00002930'
p1067
S'C2HCl2F3O'
p1068
sS's00003297'
p1069
S'C3H3F3I'
p1070
sS's00002934'
p1071
S'C2HCl2O'
p1072
sS's00010124'
p1073
S'HV'
p1074
sS's00002937'
p1075
S'C2HCl3F'
p1076
sS's00004323'
p1077
S'C4H6D2'
p1078
sS's00004322'
p1079
S'C4H6D2'
p1080
sS's00004321'
p1081
S'C4H6D2'
p1082
sS's00004320'
p1083
S'C4H6D2'
p1084
sS's00004327'
p1085
S'C4H6D2'
p1086
sS's00004326'
p1087
S'C4H6D2'
p1088
sS's00004325'
p1089
S'C4H6D2'
p1090
sS's00004324'
p1091
S'C4H6D2'
p1092
sS's00007137'
p1093
S'C7H15NS'
p1094
sS's00004329'
p1095
S'C4H6D2'
p1096
sS's00004328'
p1097
S'C4H6D2'
p1098
sS's00004244'
p1099
S'C4H5Cl3F'
p1100
sS's00009818'
p1101
S'H2AsN'
p1102
sS's00004247'
p1103
S'C4H5ClO'
p1104
sS's00002718'
p1105
S'C2H5ClO2'
p1106
sS's00002307'
p1107
S'C2H2'
p1108
sS's00002486'
p1109
S'C2H3ClFO2'
p1110
sS's00002487'
p1111
S'C2H3ClO'
p1112
sS's00008187'
p1113
S'C8H7BrO2'
p1114
sS's00010261'
p1115
S'NaO'
p1116
sS's00010301'
p1117
S'O2S'
p1118
sS's00004443'
p1119
S'C4H7Cl'
p1120
sS's00002154'
p1121
S'C2BrF4'
p1122
sS's00002483'
p1123
S'C2H3ClF2O2'
p1124
sS's00004187'
p1125
S'C4H4F6O'
p1126
sS's00004181'
p1127
S'C4H4D4O2'
p1128
sS's00004180'
p1129
S'C4H4D4'
p1130
sS's00004022'
p1131
S'C4H10P'
p1132
sS's00001051'
p1133
S'C11H23NS'
p1134
sS's00008893'
p1135
S'CCl2OS'
p1136
sS's00003838'
p1137
S'C3HBrF5'
p1138
sS's00003839'
p1139
S'C3HBrF5'
p1140
sS's00002263'
p1141
S'C2F2O5'
p1142
sS's00005982'
p1143
S'C6H12Ge'
p1144
sS's00002150'
p1145
S'C2BrClF3'
p1146
sS's00003292'
p1147
S'C3H3D4'
p1148
sS's00000298'
p1149
S'C10H11DO2'
p1150
sS's00009342'
p1151
S'CN'
p1152
sS's00009343'
p1153
S'CN'
p1154
sS's00009466'
p1155
S'Cl4Si2'
p1156
sS's00000953'
p1157
S'C11H15ClSi'
p1158
sS's00002936'
p1159
S'C2HCl3F'
p1160
sS's00001610'
p1161
S'C14H12Fe2O8'
p1162
sS's00009586'
p1163
S'D2Au2'
p1164
sS's00003291'
p1165
S'C3H3D4'
p1166
sS's00005979'
p1167
S'C6H12D2'
p1168
sS's00003150'
p1169
S'C3F6I'
p1170
sS's00002407'
p1171
S'C2H2F3O'
p1172
sS's00002400'
p1173
S'C2H2F2O2'
p1174
sS's00005971'
p1175
S'C6H12BrO'
p1176
sS's00005970'
p1177
S'C6H12BrO'
p1178
sS's00005973'
p1179
S'C6H12BrO2'
p1180
sS's00005972'
p1181
S'C6H12BrO'
p1182
sS's00004058'
p1183
S'C4H11NS'
p1184
sS's00004115'
p1185
S'C4H2Cl6FO2'
p1186
sS's00004117'
p1187
S'C4H2D'
p1188
sS's00004118'
p1189
S'C4H2D2'
p1190
sS's00009832'
p1191
S'H2BiN'
p1192
sS's00004057'
p1193
S'C4H11NS'
p1194
sS's00002620'
p1195
S'C2H4D3N2'
p1196
sS's00002808'
p1197
S'C2H6DN2'
p1198
sS's00002722'
p1199
S'C2H5D2N2'
p1200
sS's00009106'
p1201
S'CH3BrO2'
p1202
sS's00008800'
p1203
S'C9H8N4S'
p1204
sS's00007529'
p1205
S'C8Fe2N2O8'
p1206
sS's00003127'
p1207
S'C3D5O'
p1208
sS's00003123'
p1209
S'C3D2Y'
p1210
sS's00002273'
p1211
S'C2F3O4'
p1212
sS's00002271'
p1213
S'C2F3O2'
p1214
sS's00002905'
p1215
S'C2HBr2Cl2'
p1216
sS's00002906'
p1217
S'C2HBr2F2'
p1218
sS's00002908'
p1219
S'C2HBr4'
p1220
sS's00009421'
p1221
S'Cl2O4'
p1222
sS's00003302'
p1223
S'C3H3F4'
p1224
sS's00004245'
p1225
S'C4H5Cl3F'
p1226
sS's00002471'
p1227
S'C2H3Cl3'
p1228
sS's00002470'
p1229
S'C2H3Cl2O3'
p1230
sS's00005322'
p1231
S'C5H6D2N2'
p1232
sS's00002477'
p1233
S'C2H3ClF'
p1234
sS's00002476'
p1235
S'C2H3ClF'
p1236
sS's00009935'
p1237
S'H3NSi'
p1238
sS's00005323'
p1239
S'C5H6D3ClO2'
p1240
sS's00008952'
p1241
S'CD4N'
p1242
sS's00010884'
p1243
S'soot'
p1244
sS's00010111'
p1245
S'HOPd'
p1246
sS's00010115'
p1247
S'HOSc'
p1248
sS's00007796'
p1249
S'C8H13NS'
p1250
sS's00008941'
p1251
S'CD3F'
p1252
sS's00003391'
p1253
S'C3H4F3'
p1254
sS's00003390'
p1255
S'C3H4F3'
p1256
sS's00002971'
p1257
S'C2HD3NO'
p1258
sS's00002873'
p1259
S'C2H7Ge'
p1260
sS's00002758'
p1261
S'C2H5NO4S'
p1262
sS's00006685'
p1263
S'C6H8F6'
p1264
sS's00003270'
p1265
S'C3H3Cl3F'
p1266
sS's00003271'
p1267
S'C3H3Cl3F'
p1268
sS's00002617'
p1269
S'C2H4D2N'
p1270
sS's00002999'
p1271
S'C2HF4O'
p1272
sS's00002611'
p1273
S'C2H4ClO2'
p1274
sS's00001865'
p1275
S'C16H15DO2'
p1276
sS's00000174'
p1277
S'Br7'
p1278
sS's00003277'
p1279
S'C3H3ClF4'
p1280
sS's00003371'
p1281
S'C3H4ClO2'
p1282
sS's00006394'
p1283
S'C6H4ClO2'
p1284
sS's00003152'
p1285
S'C3F6O'
p1286
sS's00002991'
p1287
S'C2HF3O2'
p1288
sS's00009948'
p1289
S'H4BeN2O'
p1290
sS's00003374'
p1291
S'C3H4D2'
p1292
sS's00006395'
p1293
S'C6H4ClO2'
p1294
sS's00002584'
p1295
S'C2H4Br2O2'
p1296
sS's00010348'
p1297
S'OS'
p1298
sS's00010349'
p1299
S'OS'
p1300
sS's00009949'
p1301
S'H4Cl2O5Si2'
p1302
sS's00009904'
p1303
S'H3Ag2N'
p1304
sS's00006675'
p1305
S'C6H8D2'
p1306
sS's00002588'
p1307
S'C2H4BrO'
p1308
sS's00005674'
p1309
S'C6Cl4FeO4'
p1310
sS's00005675'
p1311
S'C6Cl4FeO4'
p1312
sS's00010024'
p1313
S'HCl2Ge'
p1314
sS's00010027'
p1315
S'HCl3Ge'
p1316
sS's00001181'
p1317
S'C12H14FP'
p1318
sS's00006399'
p1319
S'C6H4D2'
p1320
sS's00010180'
p1321
S'KNO'
p1322
sS's00004472'
p1323
S'C4H7F3'
p1324
sS's00006786'
p1325
S'C7CrF4O5'
p1326
sS's00009838'
p1327
S'H2Cl4O3Si2'
p1328
sS's00009839'
p1329
S'H2Cl4Si2'
p1330
sS's00002190'
p1331
S'C2Cl4F'
p1332
sS's00002191'
p1333
S'C2Cl4F'
p1334
sS's00000307'
p1335
S'C10H11FO3'
p1336
sS's00009830'
p1337
S'H2BiN'
p1338
sS's00009831'
p1339
S'H2BiN'
p1340
sS's00002723'
p1341
S'C2H5D2N2'
p1342
sS's00002199'
p1343
S'C2ClF2NO5'
p1344
sS's00009836'
p1345
S'H2Cl2O2Si'
p1346
sS's00002726'
p1347
S'C2H5DN'
p1348
sS's00003877'
p1349
S'C3HS'
p1350
sS's00002352'
p1351
S'C2H2ClF2'
p1352
sS's00002353'
p1353
S'C2H2ClF2NO4'
p1354
sS's00002354'
p1355
S'C2H2ClF2O'
p1356
sS's00005405'
p1357
S'C5H7NS'
p1358
sS's00003878'
p1359
S'C3HS'
p1360
sS's00010232'
p1361
S'N2000O2000'
p1362
sS's00010233'
p1363
S'N2NiO'
p1364
sS's00008736'
p1365
S'C9H21B'
p1366
sS's00010331'
p1367
S'O4Xe'
p1368
sS's00005220'
p1369
S'C5H2F9'
p1370
s.