(lp1
S'http://warehouse.primekinetics.org/depository/species/catalog/s00004158.xml'
p2
aS'http://warehouse.primekinetics.org/depository/species/catalog/s00004159.xml'
p3
aS'http://warehouse.primekinetics.org/depository/species/catalog/s00004154.xml'
p4
aS'http://warehouse.primekinetics.org/depository/species/catalog/s00004155.xml'
p5
aS'http://warehouse.primekinetics.org/depository/species/catalog/s00004156.xml'
p6
aS'http://warehouse.primekinetics.org/depository/species/catalog/s00008232.xml'
p7
aS'http://warehouse.primekinetics.org/depository/species/catalog/s00004152.xml'
p8
aS'http://warehouse.primekinetics.org/depository/species/catalog/s00000008.xml'
p9
aS'http://warehouse.primekinetics.org/depository/species/catalog/s00008737.xml'
p10
aS'http://warehouse.primekinetics.org/depository/species/catalog/s00001530.xml'
p11
aS'http://warehouse.primekinetics.org/depository/species/catalog/s00000000.xml'
p12
aS'http://warehouse.primekinetics.org/depository/species/catalog/s00000001.xml'
p13
aS'http://warehouse.primekinetics.org/depository/species/catalog/s00002987.xml'
p14
aS'http://warehouse.primekinetics.org/depository/species/catalog/s00006117.xml'
p15
aS'http://warehouse.primekinetics.org/depository/species/catalog/s00009055.xml'
p16
aS'http://warehouse.primekinetics.org/depository/species/catalog/s00002532.xml'
p17
aS'http://warehouse.primekinetics.org/depository/species/catalog/s00009051.xml'
p18
aS'http://warehouse.primekinetics.org/depository/species/catalog/s00005333.xml'
p19
aS'http://warehouse.primekinetics.org/depository/species/catalog/s00003028.xml'
p20
aS'http://warehouse.primekinetics.org/depository/species/catalog/s00005331.xml'
p21
aS'http://warehouse.primekinetics.org/depository/species/catalog/s00009114.xml'
p22
aS'http://warehouse.primekinetics.org/depository/species/catalog/s00006877.xml'
p23
aS'http://warehouse.primekinetics.org/depository/species/catalog/s00006878.xml'
p24
aS'http://warehouse.primekinetics.org/depository/species/catalog/s00005708.xml'
p25
aS'http://warehouse.primekinetics.org/depository/species/catalog/s00004124.xml'
p26
aS'http://warehouse.primekinetics.org/depository/species/catalog/s00004499.xml'
p27
aS'http://warehouse.primekinetics.org/depository/species/catalog/s00003216.xml'
p28
aS'http://warehouse.primekinetics.org/depository/species/catalog/s00004553.xml'
p29
aS'http://warehouse.primekinetics.org/depository/species/catalog/s00002200.xml'
p30
aS'http://warehouse.primekinetics.org/depository/species/catalog/s00009610.xml'
p31
aS'http://warehouse.primekinetics.org/depository/species/catalog/s00003215.xml'
p32
aS'http://warehouse.primekinetics.org/depository/species/catalog/s00009615.xml'
p33
aS'http://warehouse.primekinetics.org/depository/species/catalog/s00009203.xml'
p34
aS'http://warehouse.primekinetics.org/depository/species/catalog/s00005382.xml'
p35
aS'http://warehouse.primekinetics.org/depository/species/catalog/s00003110.xml'
p36
aS'http://warehouse.primekinetics.org/depository/species/catalog/s00003113.xml'
p37
aS'http://warehouse.primekinetics.org/depository/species/catalog/s00003112.xml'
p38
aS'http://warehouse.primekinetics.org/depository/species/catalog/s00002383.xml'
p39
aS'http://warehouse.primekinetics.org/depository/species/catalog/s00002380.xml'
p40
aS'http://warehouse.primekinetics.org/depository/species/catalog/s00002386.xml'
p41
aS'http://warehouse.primekinetics.org/depository/species/catalog/s00002384.xml'
p42
aS'http://warehouse.primekinetics.org/depository/species/catalog/s00002389.xml'
p43
aS'http://warehouse.primekinetics.org/depository/species/catalog/s00005221.xml'
p44
aS'http://warehouse.primekinetics.org/depository/species/catalog/s00002546.xml'
p45
aS'http://warehouse.primekinetics.org/depository/species/catalog/s00006593.xml'
p46
aS'http://warehouse.primekinetics.org/depository/species/catalog/s00006594.xml'
p47
aS'http://warehouse.primekinetics.org/depository/species/catalog/s00003354.xml'
p48
aS'http://warehouse.primekinetics.org/depository/species/catalog/s00002991.xml'
p49
aS'http://warehouse.primekinetics.org/depository/species/catalog/s00007423.xml'
p50
aS'http://warehouse.primekinetics.org/depository/species/catalog/s00007424.xml'
p51
aS'http://warehouse.primekinetics.org/depository/species/catalog/s00002617.xml'
p52
aS'http://warehouse.primekinetics.org/depository/species/catalog/s00003350.xml'
p53
aS'http://warehouse.primekinetics.org/depository/species/catalog/s00002941.xml'
p54
aS'http://warehouse.primekinetics.org/depository/species/catalog/s00002942.xml'
p55
aS'http://warehouse.primekinetics.org/depository/species/catalog/s00001746.xml'
p56
aS'http://warehouse.primekinetics.org/depository/species/catalog/s00001747.xml'
p57
aS'http://warehouse.primekinetics.org/depository/species/catalog/s00001745.xml'
p58
aS'http://warehouse.primekinetics.org/depository/species/catalog/s00001218.xml'
p59
aS'http://warehouse.primekinetics.org/depository/species/catalog/s00009874.xml'
p60
aS'http://warehouse.primekinetics.org/depository/species/catalog/s00009875.xml'
p61
aS'http://warehouse.primekinetics.org/depository/species/catalog/s00009876.xml'
p62
aS'http://warehouse.primekinetics.org/depository/species/catalog/s00009877.xml'
p63
aS'http://warehouse.primekinetics.org/depository/species/catalog/s00002319.xml'
p64
aS'http://warehouse.primekinetics.org/depository/species/catalog/s00009872.xml'
p65
aS'http://warehouse.primekinetics.org/depository/species/catalog/s00009873.xml'
p66
aS'http://warehouse.primekinetics.org/depository/species/catalog/s00009975.xml'
p67
aS'http://warehouse.primekinetics.org/depository/species/catalog/s00004819.xml'
p68
aS'http://warehouse.primekinetics.org/depository/species/catalog/s00003931.xml'
p69
aS'http://warehouse.primekinetics.org/depository/species/catalog/s00002641.xml'
p70
aS'http://warehouse.primekinetics.org/depository/species/catalog/s00009878.xml'
p71
aS'http://warehouse.primekinetics.org/depository/species/catalog/s00005445.xml'
p72
aS'http://warehouse.primekinetics.org/depository/species/catalog/s00005444.xml'
p73
aS'http://warehouse.primekinetics.org/depository/species/catalog/s00005447.xml'
p74
aS'http://warehouse.primekinetics.org/depository/species/catalog/s00005446.xml'
p75
aS'http://warehouse.primekinetics.org/depository/species/catalog/s00010278.xml'
p76
aS'http://warehouse.primekinetics.org/depository/species/catalog/s00009501.xml'
p77
aS'http://warehouse.primekinetics.org/depository/species/catalog/s00005443.xml'
p78
aS'http://warehouse.primekinetics.org/depository/species/catalog/s00005449.xml'
p79
aS'http://warehouse.primekinetics.org/depository/species/catalog/s00005448.xml'
p80
aS'http://warehouse.primekinetics.org/depository/species/catalog/s00004815.xml'
p81
aS'http://warehouse.primekinetics.org/depository/species/catalog/s00004814.xml'
p82
aS'http://warehouse.primekinetics.org/depository/species/catalog/s00002790.xml'
p83
aS'http://warehouse.primekinetics.org/depository/species/catalog/s00003838.xml'
p84
aS'http://warehouse.primekinetics.org/depository/species/catalog/s00010070.xml'
p85
aS'http://warehouse.primekinetics.org/depository/species/catalog/s00009293.xml'
p86
aS'http://warehouse.primekinetics.org/depository/species/catalog/s00004816.xml'
p87
aS'http://warehouse.primekinetics.org/depository/species/catalog/s00008883.xml'
p88
aS'http://warehouse.primekinetics.org/depository/species/catalog/s00004343.xml'
p89
aS'http://warehouse.primekinetics.org/depository/species/catalog/s00002911.xml'
p90
aS'http://warehouse.primekinetics.org/depository/species/catalog/s00008884.xml'
p91
aS'http://warehouse.primekinetics.org/depository/species/catalog/s00002160.xml'
p92
aS'http://warehouse.primekinetics.org/depository/species/catalog/s00000048.xml'
p93
aS'http://warehouse.primekinetics.org/depository/species/catalog/s00002164.xml'
p94
aS'http://warehouse.primekinetics.org/depository/species/catalog/s00009375.xml'
p95
aS'http://warehouse.primekinetics.org/depository/species/catalog/s00009806.xml'
p96
aS'http://warehouse.primekinetics.org/depository/species/catalog/s00002009.xml'
p97
aS'http://warehouse.primekinetics.org/depository/species/catalog/s00000294.xml'
p98
aS'http://warehouse.primekinetics.org/depository/species/catalog/s00002366.xml'
p99
aS'http://warehouse.primekinetics.org/depository/species/catalog/s00009575.xml'
p100
aS'http://warehouse.primekinetics.org/depository/species/catalog/s00009574.xml'
p101
aS'http://warehouse.primekinetics.org/depository/species/catalog/s00003142.xml'
p102
aS'http://warehouse.primekinetics.org/depository/species/catalog/s00006789.xml'
p103
aS'http://warehouse.primekinetics.org/depository/species/catalog/s00002506.xml'
p104
aS'http://warehouse.primekinetics.org/depository/species/catalog/s00003146.xml'
p105
aS'http://warehouse.primekinetics.org/depository/species/catalog/s00003147.xml'
p106
aS'http://warehouse.primekinetics.org/depository/species/catalog/s00005803.xml'
p107
aS'http://warehouse.primekinetics.org/depository/species/catalog/s00009259.xml'
p108
aS'http://warehouse.primekinetics.org/depository/species/catalog/s00009393.xml'
p109
aS'http://warehouse.primekinetics.org/depository/species/catalog/s00009394.xml'
p110
aS'http://warehouse.primekinetics.org/depository/species/catalog/s00006784.xml'
p111
aS'http://warehouse.primekinetics.org/depository/species/catalog/s00004695.xml'
p112
aS'http://warehouse.primekinetics.org/depository/species/catalog/s00004161.xml'
p113
aS'http://warehouse.primekinetics.org/depository/species/catalog/s00004160.xml'
p114
aS'http://warehouse.primekinetics.org/depository/species/catalog/s00009714.xml'
p115
aS'http://warehouse.primekinetics.org/depository/species/catalog/s00008379.xml'
p116
aS'http://warehouse.primekinetics.org/depository/species/catalog/s00009892.xml'
p117
aS'http://warehouse.primekinetics.org/depository/species/catalog/s00010898.xml'
p118
aS'http://warehouse.primekinetics.org/depository/species/catalog/s00009891.xml'
p119
aS'http://warehouse.primekinetics.org/depository/species/catalog/s00010899.xml'
p120
aS'http://warehouse.primekinetics.org/depository/species/catalog/s00002267.xml'
p121
aS'http://warehouse.primekinetics.org/depository/species/catalog/s00002915.xml'
p122
aS'http://warehouse.primekinetics.org/depository/species/catalog/s00002505.xml'
p123
aS'http://warehouse.primekinetics.org/depository/species/catalog/s00002504.xml'
p124
aS'http://warehouse.primekinetics.org/depository/species/catalog/s00002507.xml'
p125
aS'http://warehouse.primekinetics.org/depository/species/catalog/s00009024.xml'
p126
aS'http://warehouse.primekinetics.org/depository/species/catalog/s00002268.xml'
p127
aS'http://warehouse.primekinetics.org/depository/species/catalog/s00002500.xml'
p128
aS'http://warehouse.primekinetics.org/depository/species/catalog/s00002503.xml'
p129
aS'http://warehouse.primekinetics.org/depository/species/catalog/s00005244.xml'
p130
aS'http://warehouse.primekinetics.org/depository/species/catalog/s00008958.xml'
p131
aS'http://warehouse.primekinetics.org/depository/species/catalog/s00002466.xml'
p132
aS'http://warehouse.primekinetics.org/depository/species/catalog/s00002467.xml'
p133
aS'http://warehouse.primekinetics.org/depository/species/catalog/s00002468.xml'
p134
aS'http://warehouse.primekinetics.org/depository/species/catalog/s00008953.xml'
p135
aS'http://warehouse.primekinetics.org/depository/species/catalog/s00010896.xml'
p136
aS'http://warehouse.primekinetics.org/depository/species/catalog/s00008957.xml'
p137
aS'http://warehouse.primekinetics.org/depository/species/catalog/s00010100.xml'
p138
aS'http://warehouse.primekinetics.org/depository/species/catalog/s00010897.xml'
p139
aS'http://warehouse.primekinetics.org/depository/species/catalog/s00010105.xml'
p140
aS'http://warehouse.primekinetics.org/depository/species/catalog/s00004564.xml'
p141
aS'http://warehouse.primekinetics.org/depository/species/catalog/s00003384.xml'
p142
aS'http://warehouse.primekinetics.org/depository/species/catalog/s00003385.xml'
p143
aS'http://warehouse.primekinetics.org/depository/species/catalog/s00003380.xml'
p144
aS'http://warehouse.primekinetics.org/depository/species/catalog/s00003381.xml'
p145
aS'http://warehouse.primekinetics.org/depository/species/catalog/s00009094.xml'
p146
aS'http://warehouse.primekinetics.org/depository/species/catalog/s00003383.xml'
p147
aS'http://warehouse.primekinetics.org/depository/species/catalog/s00009152.xml'
p148
aS'http://warehouse.primekinetics.org/depository/species/catalog/s00009623.xml'
p149
aS'http://warehouse.primekinetics.org/depository/species/catalog/s00003388.xml'
p150
aS'http://warehouse.primekinetics.org/depository/species/catalog/s00001858.xml'
p151
aS'http://warehouse.primekinetics.org/depository/species/catalog/s00003568.xml'
p152
aS'http://warehouse.primekinetics.org/depository/species/catalog/s00003567.xml'
p153
aS'http://warehouse.primekinetics.org/depository/species/catalog/s00002606.xml'
p154
aS'http://warehouse.primekinetics.org/depository/species/catalog/s00002607.xml'
p155
aS'http://warehouse.primekinetics.org/depository/species/catalog/s00003207.xml'
p156
aS'http://warehouse.primekinetics.org/depository/species/catalog/s00002212.xml'
p157
aS'http://warehouse.primekinetics.org/depository/species/catalog/s00002522.xml'
p158
aS'http://warehouse.primekinetics.org/depository/species/catalog/s00003203.xml'
p159
aS'http://warehouse.primekinetics.org/depository/species/catalog/s00003209.xml'
p160
aS'http://warehouse.primekinetics.org/depository/species/catalog/s00003367.xml'
p161
aS'http://warehouse.primekinetics.org/depository/species/catalog/s00002608.xml'
p162
aS'http://warehouse.primekinetics.org/depository/species/catalog/s00002609.xml'
p163
aS'http://warehouse.primekinetics.org/depository/species/catalog/s00002594.xml'
p164
aS'http://warehouse.primekinetics.org/depository/species/catalog/s00003863.xml'
p165
aS'http://warehouse.primekinetics.org/depository/species/catalog/s00002591.xml'
p166
aS'http://warehouse.primekinetics.org/depository/species/catalog/s00004862.xml'
p167
aS'http://warehouse.primekinetics.org/depository/species/catalog/s00002521.xml'
p168
aS'http://warehouse.primekinetics.org/depository/species/catalog/s00010032.xml'
p169
aS'http://warehouse.primekinetics.org/depository/species/catalog/s00002951.xml'
p170
aS'http://warehouse.primekinetics.org/depository/species/catalog/s00002691.xml'
p171
aS'http://warehouse.primekinetics.org/depository/species/catalog/s00005979.xml'
p172
aS'http://warehouse.primekinetics.org/depository/species/catalog/s00004308.xml'
p173
aS'http://warehouse.primekinetics.org/depository/species/catalog/s00003150.xml'
p174
aS'http://warehouse.primekinetics.org/depository/species/catalog/s00004305.xml'
p175
aS'http://warehouse.primekinetics.org/depository/species/catalog/s00004304.xml'
p176
aS'http://warehouse.primekinetics.org/depository/species/catalog/s00004307.xml'
p177
aS'http://warehouse.primekinetics.org/depository/species/catalog/s00004261.xml'
p178
aS'http://warehouse.primekinetics.org/depository/species/catalog/s00000644.xml'
p179
aS'http://warehouse.primekinetics.org/depository/species/catalog/s00009848.xml'
p180
aS'http://warehouse.primekinetics.org/depository/species/catalog/s00000646.xml'
p181
aS'http://warehouse.primekinetics.org/depository/species/catalog/s00003843.xml'
p182
aS'http://warehouse.primekinetics.org/depository/species/catalog/s00003842.xml'
p183
aS'http://warehouse.primekinetics.org/depository/species/catalog/s00003846.xml'
p184
aS'http://warehouse.primekinetics.org/depository/species/catalog/s00009842.xml'
p185
aS'http://warehouse.primekinetics.org/depository/species/catalog/s00009920.xml'
p186
aS'http://warehouse.primekinetics.org/depository/species/catalog/s00009921.xml'
p187
aS'http://warehouse.primekinetics.org/depository/species/catalog/s00002320.xml'
p188
aS'http://warehouse.primekinetics.org/depository/species/catalog/s00002323.xml'
p189
aS'http://warehouse.primekinetics.org/depository/species/catalog/s00001857.xml'
p190
aS'http://warehouse.primekinetics.org/depository/species/catalog/s00009535.xml'
p191
aS'http://warehouse.primekinetics.org/depository/species/catalog/s00007296.xml'
p192
aS'http://warehouse.primekinetics.org/depository/species/catalog/s00002328.xml'
p193
aS'http://warehouse.primekinetics.org/depository/species/catalog/s00003852.xml'
p194
aS'http://warehouse.primekinetics.org/depository/species/catalog/s00010243.xml'
p195
aS'http://warehouse.primekinetics.org/depository/species/catalog/s00000606.xml'
p196
aS'http://warehouse.primekinetics.org/depository/species/catalog/s00006745.xml'
p197
aS'http://warehouse.primekinetics.org/depository/species/catalog/s00009915.xml'
p198
aS'http://warehouse.primekinetics.org/depository/species/catalog/s00001524.xml'
p199
aS'http://warehouse.primekinetics.org/depository/species/catalog/s00009286.xml'
p200
aS'http://warehouse.primekinetics.org/depository/species/catalog/s00009284.xml'
p201
aS'http://warehouse.primekinetics.org/depository/species/catalog/s00009324.xml'
p202
aS'http://warehouse.primekinetics.org/depository/species/catalog/s00003258.xml'
p203
aS'http://warehouse.primekinetics.org/depository/species/catalog/s00009991.xml'
p204
aS'http://warehouse.primekinetics.org/depository/species/catalog/s00009990.xml'
p205
aS'http://warehouse.primekinetics.org/depository/species/catalog/s00005287.xml'
p206
aS'http://warehouse.primekinetics.org/depository/species/catalog/s00002816.xml'
p207
aS'http://warehouse.primekinetics.org/depository/species/catalog/s00005282.xml'
p208
aS'http://warehouse.primekinetics.org/depository/species/catalog/s00002811.xml'
p209
aS'http://warehouse.primekinetics.org/depository/species/catalog/s00009109.xml'
p210
aS'http://warehouse.primekinetics.org/depository/species/catalog/s00009263.xml'
p211
aS'http://warehouse.primekinetics.org/depository/species/catalog/s00003748.xml'
p212
aS'http://warehouse.primekinetics.org/depository/species/catalog/s00005321.xml'
p213
aS'http://warehouse.primekinetics.org/depository/species/catalog/s00002819.xml'
p214
aS'http://warehouse.primekinetics.org/depository/species/catalog/s00002818.xml'
p215
aS'http://warehouse.primekinetics.org/depository/species/catalog/s00008917.xml'
p216
aS'http://warehouse.primekinetics.org/depository/species/catalog/s00008912.xml'
p217
aS'http://warehouse.primekinetics.org/depository/species/catalog/s00008913.xml'
p218
aS'http://warehouse.primekinetics.org/depository/species/catalog/s00009918.xml'
p219
aS'http://warehouse.primekinetics.org/depository/species/catalog/s00003251.xml'
p220
aS'http://warehouse.primekinetics.org/depository/species/catalog/s00003374.xml'
p221
aS'http://warehouse.primekinetics.org/depository/species/catalog/s00009749.xml'
p222
aS'http://warehouse.primekinetics.org/depository/species/catalog/s00003109.xml'
p223
aS'http://warehouse.primekinetics.org/depository/species/catalog/s00003104.xml'
p224
aS'http://warehouse.primekinetics.org/depository/species/catalog/s00003103.xml'
p225
aS'http://warehouse.primekinetics.org/depository/species/catalog/s00002391.xml'
p226
aS'http://warehouse.primekinetics.org/depository/species/catalog/s00005457.xml'
p227
aS'http://warehouse.primekinetics.org/depository/species/catalog/s00002254.xml'
p228
aS'http://warehouse.primekinetics.org/depository/species/catalog/s00002885.xml'
p229
aS'http://warehouse.primekinetics.org/depository/species/catalog/s00002493.xml'
p230
aS'http://warehouse.primekinetics.org/depository/species/catalog/s00005219.xml'
p231
aS'http://warehouse.primekinetics.org/depository/species/catalog/s00003205.xml'
p232
aS'http://warehouse.primekinetics.org/depository/species/catalog/s00008962.xml'
p233
aS'http://warehouse.primekinetics.org/depository/species/catalog/s00004820.xml'
p234
aS'http://warehouse.primekinetics.org/depository/species/catalog/s00004823.xml'
p235
aS'http://warehouse.primekinetics.org/depository/species/catalog/s00001829.xml'
p236
aS'http://warehouse.primekinetics.org/depository/species/catalog/s00001828.xml'
p237
aS'http://warehouse.primekinetics.org/depository/species/catalog/s00002955.xml'
p238
aS'http://warehouse.primekinetics.org/depository/species/catalog/s00001823.xml'
p239
aS'http://warehouse.primekinetics.org/depository/species/catalog/s00002950.xml'
p240
aS'http://warehouse.primekinetics.org/depository/species/catalog/s00009064.xml'
p241
aS'http://warehouse.primekinetics.org/depository/species/catalog/s00009830.xml'
p242
aS'http://warehouse.primekinetics.org/depository/species/catalog/s00000605.xml'
p243
aS'http://warehouse.primekinetics.org/depository/species/catalog/s00000354.xml'
p244
aS'http://warehouse.primekinetics.org/depository/species/catalog/s00000355.xml'
p245
aS'http://warehouse.primekinetics.org/depository/species/catalog/s00002777.xml'
p246
aS'http://warehouse.primekinetics.org/depository/species/catalog/s00003557.xml'
p247
aS'http://warehouse.primekinetics.org/depository/species/catalog/s00003259.xml'
p248
aS'http://warehouse.primekinetics.org/depository/species/catalog/s00000211.xml'
p249
aS'http://warehouse.primekinetics.org/depository/species/catalog/s00002771.xml'
p250
aS'http://warehouse.primekinetics.org/depository/species/catalog/s00003926.xml'
p251
aS'http://warehouse.primekinetics.org/depository/species/catalog/s00003927.xml'
p252
aS'http://warehouse.primekinetics.org/depository/species/catalog/s00003920.xml'
p253
aS'http://warehouse.primekinetics.org/depository/species/catalog/s00004918.xml'
p254
aS'http://warehouse.primekinetics.org/depository/species/catalog/s00004919.xml'
p255
aS'http://warehouse.primekinetics.org/depository/species/catalog/s00005450.xml'
p256
aS'http://warehouse.primekinetics.org/depository/species/catalog/s00005451.xml'
p257
aS'http://warehouse.primekinetics.org/depository/species/catalog/s00005458.xml'
p258
aS'http://warehouse.primekinetics.org/depository/species/catalog/s00005459.xml'
p259
aS'http://warehouse.primekinetics.org/depository/species/catalog/s00007239.xml'
p260
aS'http://warehouse.primekinetics.org/depository/species/catalog/s00008765.xml'
p261
aS'http://warehouse.primekinetics.org/depository/species/catalog/s00008764.xml'
p262
aS'http://warehouse.primekinetics.org/depository/species/catalog/s00010044.xml'
p263
aS'http://warehouse.primekinetics.org/depository/species/catalog/s00007237.xml'
p264
aS'http://warehouse.primekinetics.org/depository/species/catalog/s00002179.xml'
p265
aS'http://warehouse.primekinetics.org/depository/species/catalog/s00002176.xml'
p266
aS'http://warehouse.primekinetics.org/depository/species/catalog/s00002171.xml'
p267
aS'http://warehouse.primekinetics.org/depository/species/catalog/s00002172.xml'
p268
aS'http://warehouse.primekinetics.org/depository/species/catalog/s00002173.xml'
p269
aS'http://warehouse.primekinetics.org/depository/species/catalog/s00009813.xml'
p270
aS'http://warehouse.primekinetics.org/depository/species/catalog/s00002378.xml'
p271
aS'http://warehouse.primekinetics.org/depository/species/catalog/s00009816.xml'
p272
aS'http://warehouse.primekinetics.org/depository/species/catalog/s00009817.xml'
p273
aS'http://warehouse.primekinetics.org/depository/species/catalog/s00009814.xml'
p274
aS'http://warehouse.primekinetics.org/depository/species/catalog/s00009815.xml'
p275
aS'http://warehouse.primekinetics.org/depository/species/catalog/s00002372.xml'
p276
aS'http://warehouse.primekinetics.org/depository/species/catalog/s00002373.xml'
p277
aS'http://warehouse.primekinetics.org/depository/species/catalog/s00003953.xml'
p278
aS'http://warehouse.primekinetics.org/depository/species/catalog/s00009819.xml'
p279
aS'http://warehouse.primekinetics.org/depository/species/catalog/s00002376.xml'
p280
aS'http://warehouse.primekinetics.org/depository/species/catalog/s00002377.xml'
p281
aS'http://warehouse.primekinetics.org/depository/species/catalog/s00002374.xml'
p282
aS'http://warehouse.primekinetics.org/depository/species/catalog/s00009562.xml'
p283
aS'http://warehouse.primekinetics.org/depository/species/catalog/s00001676.xml'
p284
aS'http://warehouse.primekinetics.org/depository/species/catalog/s00003177.xml'
p285
aS'http://warehouse.primekinetics.org/depository/species/catalog/s00009227.xml'
p286
aS'http://warehouse.primekinetics.org/depository/species/catalog/s00003171.xml'
p287
aS'http://warehouse.primekinetics.org/depository/species/catalog/s00004681.xml'
p288
aS'http://warehouse.primekinetics.org/depository/species/catalog/s00006797.xml'
p289
aS'http://warehouse.primekinetics.org/depository/species/catalog/s00006790.xml'
p290
aS'http://warehouse.primekinetics.org/depository/species/catalog/s00001001.xml'
p291
aS'http://warehouse.primekinetics.org/depository/species/catalog/s00001002.xml'
p292
aS'http://warehouse.primekinetics.org/depository/species/catalog/s00002905.xml'
p293
aS'http://warehouse.primekinetics.org/depository/species/catalog/s00004074.xml'
p294
aS'http://warehouse.primekinetics.org/depository/species/catalog/s00006090.xml'
p295
aS'http://warehouse.primekinetics.org/depository/species/catalog/s00001992.xml'
p296
aS'http://warehouse.primekinetics.org/depository/species/catalog/s00006316.xml'
p297
aS'http://warehouse.primekinetics.org/depository/species/catalog/s00008380.xml'
p298
aS'http://warehouse.primekinetics.org/depository/species/catalog/s00009705.xml'
p299
aS'http://warehouse.primekinetics.org/depository/species/catalog/s00002926.xml'
p300
aS'http://warehouse.primekinetics.org/depository/species/catalog/s00002925.xml'
p301
aS'http://warehouse.primekinetics.org/depository/species/catalog/s00002924.xml'
p302
aS'http://warehouse.primekinetics.org/depository/species/catalog/s00009035.xml'
p303
aS'http://warehouse.primekinetics.org/depository/species/catalog/s00009036.xml'
p304
aS'http://warehouse.primekinetics.org/depository/species/catalog/s00002519.xml'
p305
aS'http://warehouse.primekinetics.org/depository/species/catalog/s00009135.xml'
p306
aS'http://warehouse.primekinetics.org/depository/species/catalog/s00006077.xml'
p307
aS'http://warehouse.primekinetics.org/depository/species/catalog/s00002453.xml'
p308
aS'http://warehouse.primekinetics.org/depository/species/catalog/s00003474.xml'
p309
aS'http://warehouse.primekinetics.org/depository/species/catalog/s00008924.xml'
p310
aS'http://warehouse.primekinetics.org/depository/species/catalog/s00001863.xml'
p311
aS'http://warehouse.primekinetics.org/depository/species/catalog/s00002142.xml'
p312
aS'http://warehouse.primekinetics.org/depository/species/catalog/s00001866.xml'
p313
aS'http://warehouse.primekinetics.org/depository/species/catalog/s00010139.xml'
p314
aS'http://warehouse.primekinetics.org/depository/species/catalog/s00001864.xml'
p315
aS'http://warehouse.primekinetics.org/depository/species/catalog/s00009355.xml'
p316
aS'http://warehouse.primekinetics.org/depository/species/catalog/s00007572.xml'
p317
aS'http://warehouse.primekinetics.org/depository/species/catalog/s00007571.xml'
p318
aS'http://warehouse.primekinetics.org/depository/species/catalog/s00009145.xml'
p319
aS'http://warehouse.primekinetics.org/depository/species/catalog/s00009146.xml'
p320
aS'http://warehouse.primekinetics.org/depository/species/catalog/s00002936.xml'
p321
aS'http://warehouse.primekinetics.org/depository/species/catalog/s00009142.xml'
p322
aS'http://warehouse.primekinetics.org/depository/species/catalog/s00000253.xml'
p323
aS'http://warehouse.primekinetics.org/depository/species/catalog/s00000525.xml'
p324
aS'http://warehouse.primekinetics.org/depository/species/catalog/s00000524.xml'
p325
aS'http://warehouse.primekinetics.org/depository/species/catalog/s00000254.xml'
p326
aS'http://warehouse.primekinetics.org/depository/species/catalog/s00002637.xml'
p327
aS'http://warehouse.primekinetics.org/depository/species/catalog/s00002636.xml'
p328
aS'http://warehouse.primekinetics.org/depository/species/catalog/s00005229.xml'
p329
aS'http://warehouse.primekinetics.org/depository/species/catalog/s00005228.xml'
p330
aS'http://warehouse.primekinetics.org/depository/species/catalog/s00003214.xml'
p331
aS'http://warehouse.primekinetics.org/depository/species/catalog/s00002201.xml'
p332
aS'http://warehouse.primekinetics.org/depository/species/catalog/s00003604.xml'
p333
aS'http://warehouse.primekinetics.org/depository/species/catalog/s00002204.xml'
p334
aS'http://warehouse.primekinetics.org/depository/species/catalog/s00005553.xml'
p335
aS'http://warehouse.primekinetics.org/depository/species/catalog/s00005552.xml'
p336
aS'http://warehouse.primekinetics.org/depository/species/catalog/s00005222.xml'
p337
aS'http://warehouse.primekinetics.org/depository/species/catalog/s00005555.xml'
p338
aS'http://warehouse.primekinetics.org/depository/species/catalog/s00005554.xml'
p339
aS'http://warehouse.primekinetics.org/depository/species/catalog/s00005654.xml'
p340
aS'http://warehouse.primekinetics.org/depository/species/catalog/s00005655.xml'
p341
aS'http://warehouse.primekinetics.org/depository/species/catalog/s00005656.xml'
p342
aS'http://warehouse.primekinetics.org/depository/species/catalog/s00005657.xml'
p343
aS'http://warehouse.primekinetics.org/depository/species/catalog/s00010003.xml'
p344
aS'http://warehouse.primekinetics.org/depository/species/catalog/s00010002.xml'
p345
aS'http://warehouse.primekinetics.org/depository/species/catalog/s00010001.xml'
p346
aS'http://warehouse.primekinetics.org/depository/species/catalog/s00010000.xml'
p347
aS'http://warehouse.primekinetics.org/depository/species/catalog/s00010005.xml'
p348
aS'http://warehouse.primekinetics.org/depository/species/catalog/s00010004.xml'
p349
aS'http://warehouse.primekinetics.org/depository/species/catalog/s00000414.xml'
p350
aS'http://warehouse.primekinetics.org/depository/species/catalog/s00003281.xml'
p351
aS'http://warehouse.primekinetics.org/depository/species/catalog/s00003280.xml'
p352
aS'http://warehouse.primekinetics.org/depository/species/catalog/s00000413.xml'
p353
aS'http://warehouse.primekinetics.org/depository/species/catalog/s00006674.xml'
p354
aS'http://warehouse.primekinetics.org/depository/species/catalog/s00006394.xml'
p355
aS'http://warehouse.primekinetics.org/depository/species/catalog/s00001235.xml'
p356
aS'http://warehouse.primekinetics.org/depository/species/catalog/s00007104.xml'
p357
aS'http://warehouse.primekinetics.org/depository/species/catalog/s00007105.xml'
p358
aS'http://warehouse.primekinetics.org/depository/species/catalog/s00004251.xml'
p359
aS'http://warehouse.primekinetics.org/depository/species/catalog/s00010443.xml'
p360
aS'http://warehouse.primekinetics.org/depository/species/catalog/s00003857.xml'
p361
aS'http://warehouse.primekinetics.org/depository/species/catalog/s00003850.xml'
p362
aS'http://warehouse.primekinetics.org/depository/species/catalog/s00003851.xml'
p363
aS'http://warehouse.primekinetics.org/depository/species/catalog/s00009850.xml'
p364
aS'http://warehouse.primekinetics.org/depository/species/catalog/s00003853.xml'
p365
aS'http://warehouse.primekinetics.org/depository/species/catalog/s00002334.xml'
p366
aS'http://warehouse.primekinetics.org/depository/species/catalog/s00009914.xml'
p367
aS'http://warehouse.primekinetics.org/depository/species/catalog/s00009913.xml'
p368
aS'http://warehouse.primekinetics.org/depository/species/catalog/s00002333.xml'
p369
aS'http://warehouse.primekinetics.org/depository/species/catalog/s00008425.xml'
p370
aS'http://warehouse.primekinetics.org/depository/species/catalog/s00009520.xml'
p371
aS'http://warehouse.primekinetics.org/depository/species/catalog/s00009521.xml'
p372
aS'http://warehouse.primekinetics.org/depository/species/catalog/s00010256.xml'
p373
aS'http://warehouse.primekinetics.org/depository/species/catalog/s00010257.xml'
p374
aS'http://warehouse.primekinetics.org/depository/species/catalog/s00005790.xml'
p375
aS'http://warehouse.primekinetics.org/depository/species/catalog/s00010317.xml'
p376
aS'http://warehouse.primekinetics.org/depository/species/catalog/s00010232.xml'
p377
aS'http://warehouse.primekinetics.org/depository/species/catalog/s00010312.xml'
p378
aS'http://warehouse.primekinetics.org/depository/species/catalog/s00000645.xml'
p379
aS'http://warehouse.primekinetics.org/depository/species/catalog/s00002371.xml'
p380
aS'http://warehouse.primekinetics.org/depository/species/catalog/s00004264.xml'
p381
aS'http://warehouse.primekinetics.org/depository/species/catalog/s00006280.xml'
p382
aS'http://warehouse.primekinetics.org/depository/species/catalog/s00002411.xml'
p383
aS'http://warehouse.primekinetics.org/depository/species/catalog/s00009844.xml'
p384
aS'http://warehouse.primekinetics.org/depository/species/catalog/s00002145.xml'
p385
aS'http://warehouse.primekinetics.org/depository/species/catalog/s00009292.xml'
p386
aS'http://warehouse.primekinetics.org/depository/species/catalog/s00006353.xml'
p387
aS'http://warehouse.primekinetics.org/depository/species/catalog/s00003821.xml'
p388
aS'http://warehouse.primekinetics.org/depository/species/catalog/s00009354.xml'
p389
aS'http://warehouse.primekinetics.org/depository/species/catalog/s00002149.xml'
p390
aS'http://warehouse.primekinetics.org/depository/species/catalog/s00002148.xml'
p391
aS'http://warehouse.primekinetics.org/depository/species/catalog/s00009840.xml'
p392
aS'http://warehouse.primekinetics.org/depository/species/catalog/s00009599.xml'
p393
aS'http://warehouse.primekinetics.org/depository/species/catalog/s00009598.xml'
p394
aS'http://warehouse.primekinetics.org/depository/species/catalog/s00009984.xml'
p395
aS'http://warehouse.primekinetics.org/depository/species/catalog/s00008515.xml'
p396
aS'http://warehouse.primekinetics.org/depository/species/catalog/s00008516.xml'
p397
aS'http://warehouse.primekinetics.org/depository/species/catalog/s00009988.xml'
p398
aS'http://warehouse.primekinetics.org/depository/species/catalog/s00008931.xml'
p399
aS'http://warehouse.primekinetics.org/depository/species/catalog/s00003007.xml'
p400
aS'http://warehouse.primekinetics.org/depository/species/catalog/s00002412.xml'
p401
aS'http://warehouse.primekinetics.org/depository/species/catalog/s00006525.xml'
p402
aS'http://warehouse.primekinetics.org/depository/species/catalog/s00002417.xml'
p403
aS'http://warehouse.primekinetics.org/depository/species/catalog/s00002416.xml'
p404
aS'http://warehouse.primekinetics.org/depository/species/catalog/s00005685.xml'
p405
aS'http://warehouse.primekinetics.org/depository/species/catalog/s00009277.xml'
p406
aS'http://warehouse.primekinetics.org/depository/species/catalog/s00003008.xml'
p407
aS'http://warehouse.primekinetics.org/depository/species/catalog/s00001343.xml'
p408
aS'http://warehouse.primekinetics.org/depository/species/catalog/s00005788.xml'
p409
aS'http://warehouse.primekinetics.org/depository/species/catalog/s00009275.xml'
p410
aS'http://warehouse.primekinetics.org/depository/species/catalog/s00006399.xml'
p411
aS'http://warehouse.primekinetics.org/depository/species/catalog/s00003133.xml'
p412
aS'http://warehouse.primekinetics.org/depository/species/catalog/s00006459.xml'
p413
aS'http://warehouse.primekinetics.org/depository/species/catalog/s00006458.xml'
p414
aS'http://warehouse.primekinetics.org/depository/species/catalog/s00009871.xml'
p415
aS'http://warehouse.primekinetics.org/depository/species/catalog/s00002249.xml'
p416
aS'http://warehouse.primekinetics.org/depository/species/catalog/s00003311.xml'
p417
aS'http://warehouse.primekinetics.org/depository/species/catalog/s00002245.xml'
p418
aS'http://warehouse.primekinetics.org/depository/species/catalog/s00009005.xml'
p419
aS'http://warehouse.primekinetics.org/depository/species/catalog/s00009006.xml'
p420
aS'http://warehouse.primekinetics.org/depository/species/catalog/s00009974.xml'
p421
aS'http://warehouse.primekinetics.org/depository/species/catalog/s00002485.xml'
p422
aS'http://warehouse.primekinetics.org/depository/species/catalog/s00005616.xml'
p423
aS'http://warehouse.primekinetics.org/depository/species/catalog/s00003480.xml'
p424
aS'http://warehouse.primekinetics.org/depository/species/catalog/s00002482.xml'
p425
aS'http://warehouse.primekinetics.org/depository/species/catalog/s00003484.xml'
p426
aS'http://warehouse.primekinetics.org/depository/species/catalog/s00008604.xml'
p427
aS'http://warehouse.primekinetics.org/depository/species/catalog/s00008970.xml'
p428
aS'http://warehouse.primekinetics.org/depository/species/catalog/s00008971.xml'
p429
aS'http://warehouse.primekinetics.org/depository/species/catalog/s00008603.xml'
p430
aS'http://warehouse.primekinetics.org/depository/species/catalog/s00001830.xml'
p431
aS'http://warehouse.primekinetics.org/depository/species/catalog/s00002809.xml'
p432
aS'http://warehouse.primekinetics.org/depository/species/catalog/s00002967.xml'
p433
aS'http://warehouse.primekinetics.org/depository/species/catalog/s00006795.xml'
p434
aS'http://warehouse.primekinetics.org/depository/species/catalog/s00009074.xml'
p435
aS'http://warehouse.primekinetics.org/depository/species/catalog/s00002801.xml'
p436
aS'http://warehouse.primekinetics.org/depository/species/catalog/s00002969.xml'
p437
aS'http://warehouse.primekinetics.org/depository/species/catalog/s00002968.xml'
p438
aS'http://warehouse.primekinetics.org/depository/species/catalog/s00002804.xml'
p439
aS'http://warehouse.primekinetics.org/depository/species/catalog/s00000209.xml'
p440
aS'http://warehouse.primekinetics.org/depository/species/catalog/s00009952.xml'
p441
aS'http://warehouse.primekinetics.org/depository/species/catalog/s00009951.xml'
p442
aS'http://warehouse.primekinetics.org/depository/species/catalog/s00003266.xml'
p443
aS'http://warehouse.primekinetics.org/depository/species/catalog/s00003262.xml'
p444
aS'http://warehouse.primekinetics.org/depository/species/catalog/s00003261.xml'
p445
aS'http://warehouse.primekinetics.org/depository/species/catalog/s00003260.xml'
p446
aS'http://warehouse.primekinetics.org/depository/species/catalog/s00010292.xml'
p447
aS'http://warehouse.primekinetics.org/depository/species/catalog/s00002817.xml'
p448
aS'http://warehouse.primekinetics.org/depository/species/catalog/s00010297.xml'
p449
aS'http://warehouse.primekinetics.org/depository/species/catalog/s00008074.xml'
p450
aS'http://warehouse.primekinetics.org/depository/species/catalog/s00010350.xml'
p451
aS'http://warehouse.primekinetics.org/depository/species/catalog/s00002998.xml'
p452
aS'http://warehouse.primekinetics.org/depository/species/catalog/s00010198.xml'
p453
aS'http://warehouse.primekinetics.org/depository/species/catalog/s00004848.xml'
p454
aS'http://warehouse.primekinetics.org/depository/species/catalog/s00000068.xml'
p455
aS'http://warehouse.primekinetics.org/depository/species/catalog/s00000065.xml'
p456
aS'http://warehouse.primekinetics.org/depository/species/catalog/s00000066.xml'
p457
aS'http://warehouse.primekinetics.org/depository/species/catalog/s00000067.xml'
p458
aS'http://warehouse.primekinetics.org/depository/species/catalog/s00008094.xml'
p459
aS'http://warehouse.primekinetics.org/depository/species/catalog/s00003371.xml'
p460
aS'http://warehouse.primekinetics.org/depository/species/catalog/s00002185.xml'
p461
aS'http://warehouse.primekinetics.org/depository/species/catalog/s00002186.xml'
p462
aS'http://warehouse.primekinetics.org/depository/species/catalog/s00002188.xml'
p463
aS'http://warehouse.primekinetics.org/depository/species/catalog/s00004283.xml'
p464
aS'http://warehouse.primekinetics.org/depository/species/catalog/s00003864.xml'
p465
aS'http://warehouse.primekinetics.org/depository/species/catalog/s00000909.xml'
p466
aS'http://warehouse.primekinetics.org/depository/species/catalog/s00003949.xml'
p467
aS'http://warehouse.primekinetics.org/depository/species/catalog/s00003861.xml'
p468
aS'http://warehouse.primekinetics.org/depository/species/catalog/s00003860.xml'
p469
aS'http://warehouse.primekinetics.org/depository/species/catalog/s00009821.xml'
p470
aS'http://warehouse.primekinetics.org/depository/species/catalog/s00009820.xml'
p471
aS'http://warehouse.primekinetics.org/depository/species/catalog/s00002345.xml'
p472
aS'http://warehouse.primekinetics.org/depository/species/catalog/s00009829.xml'
p473
aS'http://warehouse.primekinetics.org/depository/species/catalog/s00009828.xml'
p474
aS'http://warehouse.primekinetics.org/depository/species/catalog/s00003223.xml'
p475
aS'http://warehouse.primekinetics.org/depository/species/catalog/s00010228.xml'
p476
aS'http://warehouse.primekinetics.org/depository/species/catalog/s00009559.xml'
p477
aS'http://warehouse.primekinetics.org/depository/species/catalog/s00010220.xml'
p478
aS'http://warehouse.primekinetics.org/depository/species/catalog/s00004142.xml'
p479
aS'http://warehouse.primekinetics.org/depository/species/catalog/s00004141.xml'
p480
aS'http://warehouse.primekinetics.org/depository/species/catalog/s00001545.xml'
p481
aS'http://warehouse.primekinetics.org/depository/species/catalog/s00000011.xml'
p482
aS'http://warehouse.primekinetics.org/depository/species/catalog/s00000010.xml'
p483
aS'http://warehouse.primekinetics.org/depository/species/catalog/s00000013.xml'
p484
aS'http://warehouse.primekinetics.org/depository/species/catalog/s00000012.xml'
p485
aS'http://warehouse.primekinetics.org/depository/species/catalog/s00010349.xml'
p486
aS'http://warehouse.primekinetics.org/depository/species/catalog/s00009300.xml'
p487
aS'http://warehouse.primekinetics.org/depository/species/catalog/s00004700.xml'
p488
aS'http://warehouse.primekinetics.org/depository/species/catalog/s00008251.xml'
p489
aS'http://warehouse.primekinetics.org/depository/species/catalog/s00002449.xml'
p490
aS'http://warehouse.primekinetics.org/depository/species/catalog/s00009047.xml'
p491
aS'http://warehouse.primekinetics.org/depository/species/catalog/s00002520.xml'
p492
aS'http://warehouse.primekinetics.org/depository/species/catalog/s00003346.xml'
p493
aS'http://warehouse.primekinetics.org/depository/species/catalog/s00002525.xml'
p494
aS'http://warehouse.primekinetics.org/depository/species/catalog/s00009042.xml'
p495
aS'http://warehouse.primekinetics.org/depository/species/catalog/s00009122.xml'
p496
aS'http://warehouse.primekinetics.org/depository/species/catalog/s00002528.xml'
p497
aS'http://warehouse.primekinetics.org/depository/species/catalog/s00009048.xml'
p498
aS'http://warehouse.primekinetics.org/depository/species/catalog/s00009129.xml'
p499
aS'http://warehouse.primekinetics.org/depository/species/catalog/s00005710.xml'
p500
aS'http://warehouse.primekinetics.org/depository/species/catalog/s00008935.xml'
p501
aS'http://warehouse.primekinetics.org/depository/species/catalog/s00008932.xml'
p502
aS'http://warehouse.primekinetics.org/depository/species/catalog/s00008933.xml'
p503
aS'http://warehouse.primekinetics.org/depository/species/catalog/s00003449.xml'
p504
aS'http://warehouse.primekinetics.org/depository/species/catalog/s00003448.xml'
p505
aS'http://warehouse.primekinetics.org/depository/species/catalog/s00005227.xml'
p506
aS'http://warehouse.primekinetics.org/depository/species/catalog/s00010027.xml'
p507
aS'http://warehouse.primekinetics.org/depository/species/catalog/s00003168.xml'
p508
aS'http://warehouse.primekinetics.org/depository/species/catalog/s00009608.xml'
p509
aS'http://warehouse.primekinetics.org/depository/species/catalog/s00006401.xml'
p510
aS'http://warehouse.primekinetics.org/depository/species/catalog/s00009604.xml'
p511
aS'http://warehouse.primekinetics.org/depository/species/catalog/s00003164.xml'
p512
aS'http://warehouse.primekinetics.org/depository/species/catalog/s00003167.xml'
p513
aS'http://warehouse.primekinetics.org/depository/species/catalog/s00007748.xml'
p514
aS'http://warehouse.primekinetics.org/depository/species/catalog/s00002625.xml'
p515
aS'http://warehouse.primekinetics.org/depository/species/catalog/s00003227.xml'
p516
aS'http://warehouse.primekinetics.org/depository/species/catalog/s00003226.xml'
p517
aS'http://warehouse.primekinetics.org/depository/species/catalog/s00002789.xml'
p518
aS'http://warehouse.primekinetics.org/depository/species/catalog/s00003224.xml'
p519
aS'http://warehouse.primekinetics.org/depository/species/catalog/s00009093.xml'
p520
aS'http://warehouse.primekinetics.org/depository/species/catalog/s00003204.xml'
p521
aS'http://warehouse.primekinetics.org/depository/species/catalog/s00002234.xml'
p522
aS'http://warehouse.primekinetics.org/depository/species/catalog/s00002232.xml'
p523
aS'http://warehouse.primekinetics.org/depository/species/catalog/s00002231.xml'
p524
aS'http://warehouse.primekinetics.org/depository/species/catalog/s00003349.xml'
p525
aS'http://warehouse.primekinetics.org/depository/species/catalog/s00005230.xml'
p526
aS'http://warehouse.primekinetics.org/depository/species/catalog/s00005231.xml'
p527
aS'http://warehouse.primekinetics.org/depository/species/catalog/s00010180.xml'
p528
aS'http://warehouse.primekinetics.org/depository/species/catalog/s00004718.xml'
p529
aS'http://warehouse.primekinetics.org/depository/species/catalog/s00005789.xml'
p530
aS'http://warehouse.primekinetics.org/depository/species/catalog/s00004807.xml'
p531
aS'http://warehouse.primekinetics.org/depository/species/catalog/s00008980.xml'
p532
aS'http://warehouse.primekinetics.org/depository/species/catalog/s00010010.xml'
p533
aS'http://warehouse.primekinetics.org/depository/species/catalog/s00006669.xml'
p534
aS'http://warehouse.primekinetics.org/depository/species/catalog/s00003298.xml'
p535
aS'http://warehouse.primekinetics.org/depository/species/catalog/s00002930.xml'
p536
aS'http://warehouse.primekinetics.org/depository/species/catalog/s00003297.xml'
p537
aS'http://warehouse.primekinetics.org/depository/species/catalog/s00002934.xml'
p538
aS'http://warehouse.primekinetics.org/depository/species/catalog/s00010124.xml'
p539
aS'http://warehouse.primekinetics.org/depository/species/catalog/s00002937.xml'
p540
aS'http://warehouse.primekinetics.org/depository/species/catalog/s00004323.xml'
p541
aS'http://warehouse.primekinetics.org/depository/species/catalog/s00004322.xml'
p542
aS'http://warehouse.primekinetics.org/depository/species/catalog/s00004321.xml'
p543
aS'http://warehouse.primekinetics.org/depository/species/catalog/s00004320.xml'
p544
aS'http://warehouse.primekinetics.org/depository/species/catalog/s00004327.xml'
p545
aS'http://warehouse.primekinetics.org/depository/species/catalog/s00004326.xml'
p546
aS'http://warehouse.primekinetics.org/depository/species/catalog/s00004325.xml'
p547
aS'http://warehouse.primekinetics.org/depository/species/catalog/s00004324.xml'
p548
aS'http://warehouse.primekinetics.org/depository/species/catalog/s00007137.xml'
p549
aS'http://warehouse.primekinetics.org/depository/species/catalog/s00004329.xml'
p550
aS'http://warehouse.primekinetics.org/depository/species/catalog/s00004328.xml'
p551
aS'http://warehouse.primekinetics.org/depository/species/catalog/s00004244.xml'
p552
aS'http://warehouse.primekinetics.org/depository/species/catalog/s00009818.xml'
p553
aS'http://warehouse.primekinetics.org/depository/species/catalog/s00004247.xml'
p554
aS'http://warehouse.primekinetics.org/depository/species/catalog/s00002718.xml'
p555
aS'http://warehouse.primekinetics.org/depository/species/catalog/s00002307.xml'
p556
aS'http://warehouse.primekinetics.org/depository/species/catalog/s00002486.xml'
p557
aS'http://warehouse.primekinetics.org/depository/species/catalog/s00002487.xml'
p558
aS'http://warehouse.primekinetics.org/depository/species/catalog/s00008187.xml'
p559
aS'http://warehouse.primekinetics.org/depository/species/catalog/s00010261.xml'
p560
aS'http://warehouse.primekinetics.org/depository/species/catalog/s00010301.xml'
p561
aS'http://warehouse.primekinetics.org/depository/species/catalog/s00004443.xml'
p562
aS'http://warehouse.primekinetics.org/depository/species/catalog/s00002483.xml'
p563
aS'http://warehouse.primekinetics.org/depository/species/catalog/s00004187.xml'
p564
aS'http://warehouse.primekinetics.org/depository/species/catalog/s00004181.xml'
p565
aS'http://warehouse.primekinetics.org/depository/species/catalog/s00004180.xml'
p566
aS'http://warehouse.primekinetics.org/depository/species/catalog/s00004022.xml'
p567
aS'http://warehouse.primekinetics.org/depository/species/catalog/s00001051.xml'
p568
aS'http://warehouse.primekinetics.org/depository/species/catalog/s00008893.xml'
p569
aS'http://warehouse.primekinetics.org/depository/species/catalog/s00002154.xml'
p570
aS'http://warehouse.primekinetics.org/depository/species/catalog/s00003839.xml'
p571
aS'http://warehouse.primekinetics.org/depository/species/catalog/s00002263.xml'
p572
aS'http://warehouse.primekinetics.org/depository/species/catalog/s00005982.xml'
p573
aS'http://warehouse.primekinetics.org/depository/species/catalog/s00002150.xml'
p574
aS'http://warehouse.primekinetics.org/depository/species/catalog/s00003292.xml'
p575
aS'http://warehouse.primekinetics.org/depository/species/catalog/s00000298.xml'
p576
aS'http://warehouse.primekinetics.org/depository/species/catalog/s00009342.xml'
p577
aS'http://warehouse.primekinetics.org/depository/species/catalog/s00009343.xml'
p578
aS'http://warehouse.primekinetics.org/depository/species/catalog/s00009466.xml'
p579
aS'http://warehouse.primekinetics.org/depository/species/catalog/s00000953.xml'
p580
aS'http://warehouse.primekinetics.org/depository/species/catalog/s00009462.xml'
p581
aS'http://warehouse.primekinetics.org/depository/species/catalog/s00001610.xml'
p582
aS'http://warehouse.primekinetics.org/depository/species/catalog/s00009586.xml'
p583
aS'http://warehouse.primekinetics.org/depository/species/catalog/s00003291.xml'
p584
aS'http://warehouse.primekinetics.org/depository/species/catalog/s00003151.xml'
p585
aS'http://warehouse.primekinetics.org/depository/species/catalog/s00005978.xml'
p586
aS'http://warehouse.primekinetics.org/depository/species/catalog/s00002407.xml'
p587
aS'http://warehouse.primekinetics.org/depository/species/catalog/s00002400.xml'
p588
aS'http://warehouse.primekinetics.org/depository/species/catalog/s00005971.xml'
p589
aS'http://warehouse.primekinetics.org/depository/species/catalog/s00005970.xml'
p590
aS'http://warehouse.primekinetics.org/depository/species/catalog/s00005973.xml'
p591
aS'http://warehouse.primekinetics.org/depository/species/catalog/s00005972.xml'
p592
aS'http://warehouse.primekinetics.org/depository/species/catalog/s00004058.xml'
p593
aS'http://warehouse.primekinetics.org/depository/species/catalog/s00004115.xml'
p594
aS'http://warehouse.primekinetics.org/depository/species/catalog/s00004117.xml'
p595
aS'http://warehouse.primekinetics.org/depository/species/catalog/s00004118.xml'
p596
aS'http://warehouse.primekinetics.org/depository/species/catalog/s00002723.xml'
p597
aS'http://warehouse.primekinetics.org/depository/species/catalog/s00004057.xml'
p598
aS'http://warehouse.primekinetics.org/depository/species/catalog/s00002620.xml'
p599
aS'http://warehouse.primekinetics.org/depository/species/catalog/s00002808.xml'
p600
aS'http://warehouse.primekinetics.org/depository/species/catalog/s00002199.xml'
p601
aS'http://warehouse.primekinetics.org/depository/species/catalog/s00009106.xml'
p602
aS'http://warehouse.primekinetics.org/depository/species/catalog/s00008800.xml'
p603
aS'http://warehouse.primekinetics.org/depository/species/catalog/s00007529.xml'
p604
aS'http://warehouse.primekinetics.org/depository/species/catalog/s00003127.xml'
p605
aS'http://warehouse.primekinetics.org/depository/species/catalog/s00003123.xml'
p606
aS'http://warehouse.primekinetics.org/depository/species/catalog/s00002273.xml'
p607
aS'http://warehouse.primekinetics.org/depository/species/catalog/s00002271.xml'
p608
aS'http://warehouse.primekinetics.org/depository/species/catalog/s00003308.xml'
p609
aS'http://warehouse.primekinetics.org/depository/species/catalog/s00002906.xml'
p610
aS'http://warehouse.primekinetics.org/depository/species/catalog/s00002908.xml'
p611
aS'http://warehouse.primekinetics.org/depository/species/catalog/s00002352.xml'
p612
aS'http://warehouse.primekinetics.org/depository/species/catalog/s00003302.xml'
p613
aS'http://warehouse.primekinetics.org/depository/species/catalog/s00004245.xml'
p614
aS'http://warehouse.primekinetics.org/depository/species/catalog/s00002471.xml'
p615
aS'http://warehouse.primekinetics.org/depository/species/catalog/s00002470.xml'
p616
aS'http://warehouse.primekinetics.org/depository/species/catalog/s00005322.xml'
p617
aS'http://warehouse.primekinetics.org/depository/species/catalog/s00002477.xml'
p618
aS'http://warehouse.primekinetics.org/depository/species/catalog/s00002476.xml'
p619
aS'http://warehouse.primekinetics.org/depository/species/catalog/s00002354.xml'
p620
aS'http://warehouse.primekinetics.org/depository/species/catalog/s00005323.xml'
p621
aS'http://warehouse.primekinetics.org/depository/species/catalog/s00008952.xml'
p622
aS'http://warehouse.primekinetics.org/depository/species/catalog/s00010884.xml'
p623
aS'http://warehouse.primekinetics.org/depository/species/catalog/s00010111.xml'
p624
aS'http://warehouse.primekinetics.org/depository/species/catalog/s00009949.xml'
p625
aS'http://warehouse.primekinetics.org/depository/species/catalog/s00010115.xml'
p626
aS'http://warehouse.primekinetics.org/depository/species/catalog/s00007796.xml'
p627
aS'http://warehouse.primekinetics.org/depository/species/catalog/s00008941.xml'
p628
aS'http://warehouse.primekinetics.org/depository/species/catalog/s00003391.xml'
p629
aS'http://warehouse.primekinetics.org/depository/species/catalog/s00003390.xml'
p630
aS'http://warehouse.primekinetics.org/depository/species/catalog/s00002971.xml'
p631
aS'http://warehouse.primekinetics.org/depository/species/catalog/s00002873.xml'
p632
aS'http://warehouse.primekinetics.org/depository/species/catalog/s00002758.xml'
p633
aS'http://warehouse.primekinetics.org/depository/species/catalog/s00006685.xml'
p634
aS'http://warehouse.primekinetics.org/depository/species/catalog/s00003270.xml'
p635
aS'http://warehouse.primekinetics.org/depository/species/catalog/s00003271.xml'
p636
aS'http://warehouse.primekinetics.org/depository/species/catalog/s00003272.xml'
p637
aS'http://warehouse.primekinetics.org/depository/species/catalog/s00002999.xml'
p638
aS'http://warehouse.primekinetics.org/depository/species/catalog/s00002611.xml'
p639
aS'http://warehouse.primekinetics.org/depository/species/catalog/s00001865.xml'
p640
aS'http://warehouse.primekinetics.org/depository/species/catalog/s00000174.xml'
p641
aS'http://warehouse.primekinetics.org/depository/species/catalog/s00003277.xml'
p642
aS'http://warehouse.primekinetics.org/depository/species/catalog/s00003278.xml'
p643
aS'http://warehouse.primekinetics.org/depository/species/catalog/s00003279.xml'
p644
aS'http://warehouse.primekinetics.org/depository/species/catalog/s00003152.xml'
p645
aS'http://warehouse.primekinetics.org/depository/species/catalog/s00003372.xml'
p646
aS'http://warehouse.primekinetics.org/depository/species/catalog/s00009948.xml'
p647
aS'http://warehouse.primekinetics.org/depository/species/catalog/s00000825.xml'
p648
aS'http://warehouse.primekinetics.org/depository/species/catalog/s00006395.xml'
p649
aS'http://warehouse.primekinetics.org/depository/species/catalog/s00002584.xml'
p650
aS'http://warehouse.primekinetics.org/depository/species/catalog/s00010348.xml'
p651
aS'http://warehouse.primekinetics.org/depository/species/catalog/s00006396.xml'
p652
aS'http://warehouse.primekinetics.org/depository/species/catalog/s00005672.xml'
p653
aS'http://warehouse.primekinetics.org/depository/species/catalog/s00009904.xml'
p654
aS'http://warehouse.primekinetics.org/depository/species/catalog/s00006675.xml'
p655
aS'http://warehouse.primekinetics.org/depository/species/catalog/s00002588.xml'
p656
aS'http://warehouse.primekinetics.org/depository/species/catalog/s00005674.xml'
p657
aS'http://warehouse.primekinetics.org/depository/species/catalog/s00005675.xml'
p658
aS'http://warehouse.primekinetics.org/depository/species/catalog/s00010024.xml'
p659
aS'http://warehouse.primekinetics.org/depository/species/catalog/s00004875.xml'
p660
aS'http://warehouse.primekinetics.org/depository/species/catalog/s00001181.xml'
p661
aS'http://warehouse.primekinetics.org/depository/species/catalog/s00006834.xml'
p662
aS'http://warehouse.primekinetics.org/depository/species/catalog/s00003208.xml'
p663
aS'http://warehouse.primekinetics.org/depository/species/catalog/s00004472.xml'
p664
aS'http://warehouse.primekinetics.org/depository/species/catalog/s00006786.xml'
p665
aS'http://warehouse.primekinetics.org/depository/species/catalog/s00009838.xml'
p666
aS'http://warehouse.primekinetics.org/depository/species/catalog/s00009839.xml'
p667
aS'http://warehouse.primekinetics.org/depository/species/catalog/s00002190.xml'
p668
aS'http://warehouse.primekinetics.org/depository/species/catalog/s00002191.xml'
p669
aS'http://warehouse.primekinetics.org/depository/species/catalog/s00000307.xml'
p670
aS'http://warehouse.primekinetics.org/depository/species/catalog/s00000309.xml'
p671
aS'http://warehouse.primekinetics.org/depository/species/catalog/s00009831.xml'
p672
aS'http://warehouse.primekinetics.org/depository/species/catalog/s00009832.xml'
p673
aS'http://warehouse.primekinetics.org/depository/species/catalog/s00002722.xml'
p674
aS'http://warehouse.primekinetics.org/depository/species/catalog/s00009836.xml'
p675
aS'http://warehouse.primekinetics.org/depository/species/catalog/s00002726.xml'
p676
aS'http://warehouse.primekinetics.org/depository/species/catalog/s00003877.xml'
p677
aS'http://warehouse.primekinetics.org/depository/species/catalog/s00009421.xml'
p678
aS'http://warehouse.primekinetics.org/depository/species/catalog/s00002353.xml'
p679
aS'http://warehouse.primekinetics.org/depository/species/catalog/s00009935.xml'
p680
aS'http://warehouse.primekinetics.org/depository/species/catalog/s00005405.xml'
p681
aS'http://warehouse.primekinetics.org/depository/species/catalog/s00003878.xml'
p682
aS'http://warehouse.primekinetics.org/depository/species/catalog/s00009178.xml'
p683
aS'http://warehouse.primekinetics.org/depository/species/catalog/s00010233.xml'
p684
aS'http://warehouse.primekinetics.org/depository/species/catalog/s00008736.xml'
p685
aS'http://warehouse.primekinetics.org/depository/species/catalog/s00010331.xml'
p686
aS'http://warehouse.primekinetics.org/depository/species/catalog/s00005220.xml'
p687
a.